---
triple:          'arm64-apple-darwin'
binary-path:     main_v4
relocations:
  - { offsetInCU: 0x10A4F, offset: 0x10A4F, size: 0x8, addend: 0x0, symName: __ZNSt3__17advanceB8ue170006IPNS_6vectorI4NodeNS_9allocatorIS2_EEEEllvEEvRT_T0_, symObjAddr: 0x2F10, symBinAddr: 0x100004AFC, symSize: 0x38 }
  - { offsetInCU: 0x10CCF, offset: 0x10CCF, size: 0x8, addend: 0x0, symName: __ZNSt3__17advanceB8ue170006INS_16reverse_iteratorIPNS_6vectorI4NodeNS_9allocatorIS3_EEEEEEllvEEvRT_T0_, symObjAddr: 0x3980, symBinAddr: 0x10000556C, symSize: 0x38 }
  - { offsetInCU: 0x15864, offset: 0x15864, size: 0x8, addend: 0x0, symName: __ZNSt3__17advanceB8ue170006IPNS_12basic_stringIcNS_11char_traitsIcEENS_9allocatorIcEEEEllvEEvRT_T0_, symObjAddr: 0x6CA0, symBinAddr: 0x10000888C, symSize: 0x38 }
  - { offsetInCU: 0x15C26, offset: 0x15C26, size: 0x8, addend: 0x0, symName: __ZNSt3__17advanceB8ue170006INS_16reverse_iteratorIPNS_12basic_stringIcNS_11char_traitsIcEENS_9allocatorIcEEEEEEllvEEvRT_T0_, symObjAddr: 0x82C4, symBinAddr: 0x100009EB0, symSize: 0x38 }
  - { offsetInCU: 0x15FC3, offset: 0x15FC3, size: 0x8, addend: 0x0, symName: __ZNSt3__17advanceB8ue170006IP4LinellvEEvRT_T0_, symObjAddr: 0x9E34, symBinAddr: 0x10000BA20, symSize: 0x38 }
  - { offsetInCU: 0x16243, offset: 0x16243, size: 0x8, addend: 0x0, symName: __ZNSt3__17advanceB8ue170006INS_16reverse_iteratorIP4LineEEllvEEvRT_T0_, symObjAddr: 0xA1F4, symBinAddr: 0x10000BDE0, symSize: 0x38 }
  - { offsetInCU: 0x165E0, offset: 0x165E0, size: 0x8, addend: 0x0, symName: __ZNSt3__17advanceB8ue170006IP4NodellvEEvRT_T0_, symObjAddr: 0xB6E8, symBinAddr: 0x10000D2D4, symSize: 0x38 }
  - { offsetInCU: 0x16860, offset: 0x16860, size: 0x8, addend: 0x0, symName: __ZNSt3__17advanceB8ue170006INS_16reverse_iteratorIP4NodeEEllvEEvRT_T0_, symObjAddr: 0xBAA0, symBinAddr: 0x10000D68C, symSize: 0x38 }
  - { offsetInCU: 0x168CB, offset: 0x168CB, size: 0x8, addend: 0x0, symName: __ZNSt3__16copy_nB8ue170006IPKcmPcEENS_9enable_ifIXsr37__has_random_access_iterator_categoryIT_EE5valueET1_E4typeES5_T0_S6_, symObjAddr: 0xC900, symBinAddr: 0x10000E4EC, symSize: 0x44 }
  - { offsetInCU: 0x18A77, offset: 0x18A77, size: 0x8, addend: 0x0, symName: __ZNSt3__17advanceB8ue170006IPNS_5tupleIJNS_12basic_stringIcNS_11char_traitsIcEENS_9allocatorIcEEEEiEEEllvEEvRT_T0_, symObjAddr: 0x12250, symBinAddr: 0x100013E3C, symSize: 0x38 }
  - { offsetInCU: 0x18E39, offset: 0x18E39, size: 0x8, addend: 0x0, symName: __ZNSt3__17advanceB8ue170006INS_16reverse_iteratorIPNS_5tupleIJNS_12basic_stringIcNS_11char_traitsIcEENS_9allocatorIcEEEEiEEEEEllvEEvRT_T0_, symObjAddr: 0x1351C, symBinAddr: 0x100015108, symSize: 0x38 }
  - { offsetInCU: 0x18EA4, offset: 0x18EA4, size: 0x8, addend: 0x0, symName: __ZNSt3__124__put_character_sequenceB8ue170006IcNS_11char_traitsIcEEEERNS_13basic_ostreamIT_T0_EES7_PKS4_m, symObjAddr: 0x13E2C, symBinAddr: 0x100015A18, symSize: 0x1EC }
  - { offsetInCU: 0x1A018, offset: 0x1A018, size: 0x8, addend: 0x0, symName: __ZNSt3__1lsB8ue170006INS_11char_traitsIcEEEERNS_13basic_ostreamIcT_EES6_PKc, symObjAddr: 0x32C, symBinAddr: 0x100001F18, symSize: 0x48 }
  - { offsetInCU: 0x1A05E, offset: 0x1A05E, size: 0x8, addend: 0x0, symName: __ZNSt3__17getlineB8ue170006IcNS_11char_traitsIcEENS_9allocatorIcEEEERNS_13basic_istreamIT_T0_EES9_RNS_12basic_stringIS6_S7_T1_EES6_, symObjAddr: 0x374, symBinAddr: 0x100001F60, symSize: 0x234 }
  - { offsetInCU: 0x1A11C, offset: 0x1A11C, size: 0x8, addend: 0x0, symName: __ZNSt3__1lsB8ue170006IcNS_11char_traitsIcEENS_9allocatorIcEEEERNS_13basic_ostreamIT_T0_EES9_RKNS_12basic_stringIS6_S7_T1_EE, symObjAddr: 0x5A8, symBinAddr: 0x100002194, symSize: 0x4C }
  - { offsetInCU: 0x1A57A, offset: 0x1A57A, size: 0x8, addend: 0x0, symName: __ZNSt3__13getB8ue170006ILm0EJbNS_12basic_stringIcNS_11char_traitsIcEENS_9allocatorIcEEEEEEERNS_13tuple_elementIXT_ENS_5tupleIJDpT0_EEEE4typeERSB_, symObjAddr: 0x9FC, symBinAddr: 0x1000025E8, symSize: 0x24 }
  - { offsetInCU: 0x1A5C2, offset: 0x1A5C2, size: 0x8, addend: 0x0, symName: __ZNSt3__13getB8ue170006ILm1EJbNS_12basic_stringIcNS_11char_traitsIcEENS_9allocatorIcEEEEEEERNS_13tuple_elementIXT_ENS_5tupleIJDpT0_EEEE4typeERSB_, symObjAddr: 0xA20, symBinAddr: 0x10000260C, symSize: 0x28 }
  - { offsetInCU: 0x1A60A, offset: 0x1A60A, size: 0x8, addend: 0x0, symName: __ZNSt3__14endlB8ue170006IcNS_11char_traitsIcEEEERNS_13basic_ostreamIT_T0_EES7_, symObjAddr: 0xA74, symBinAddr: 0x100002660, symSize: 0x58 }
  - { offsetInCU: 0x1A64A, offset: 0x1A64A, size: 0x8, addend: 0x0, symName: __ZNSt3__118__constexpr_strlenB8ue170006EPKc, symObjAddr: 0xF1C, symBinAddr: 0x100002B08, symSize: 0x24 }
  - { offsetInCU: 0x1A676, offset: 0x1A676, size: 0x8, addend: 0x0, symName: __ZNSt3__112__to_addressB8ue170006INS_6vectorI4NodeNS_9allocatorIS2_EEEEEEPT_S7_, symObjAddr: 0x1A48, symBinAddr: 0x100003634, symSize: 0x14 }
  - { offsetInCU: 0x1A6D0, offset: 0x1A6D0, size: 0x8, addend: 0x0, symName: __ZNSt3__112construct_atB8ue170006INS_6vectorI4NodeNS_9allocatorIS2_EEEEJEPS5_EEPT_S8_DpOT0_, symObjAddr: 0x1AD4, symBinAddr: 0x1000036C0, symSize: 0x34 }
  - { offsetInCU: 0x1A72C, offset: 0x1A72C, size: 0x8, addend: 0x0, symName: __ZNSt3__13maxB8ue170006ImEERKT_S3_S3_, symObjAddr: 0x1D98, symBinAddr: 0x100003984, symSize: 0x2C }
  - { offsetInCU: 0x1A76F, offset: 0x1A76F, size: 0x8, addend: 0x0, symName: __ZNSt3__13minB8ue170006ImEERKT_S3_S3_, symObjAddr: 0x1DC4, symBinAddr: 0x1000039B0, symSize: 0x2C }
  - { offsetInCU: 0x1A99C, offset: 0x1A99C, size: 0x8, addend: 0x0, symName: __ZNSt3__13minB8ue170006ImNS_6__lessIvvEEEERKT_S5_S5_T0_, symObjAddr: 0x1E54, symBinAddr: 0x100003A40, symSize: 0x54 }
  - { offsetInCU: 0x1AC27, offset: 0x1AC27, size: 0x8, addend: 0x0, symName: __ZNSt3__120__throw_length_errorB8ue170006EPKc, symObjAddr: 0x1F38, symBinAddr: 0x100003B24, symSize: 0x64 }
  - { offsetInCU: 0x1AC51, offset: 0x1AC51, size: 0x8, addend: 0x0, symName: __ZNSt3__13maxB8ue170006ImNS_6__lessIvvEEEERKT_S5_S5_T0_, symObjAddr: 0x207C, symBinAddr: 0x100003C68, symSize: 0x54 }
  - { offsetInCU: 0x1ACAB, offset: 0x1ACAB, size: 0x8, addend: 0x0, symName: __ZNSt3__119__allocate_at_leastB8ue170006INS_9allocatorINS_6vectorI4NodeNS1_IS3_EEEEEEEEDaRT_m, symObjAddr: 0x21EC, symBinAddr: 0x100003DD8, symSize: 0x3C }
  - { offsetInCU: 0x1ACEE, offset: 0x1ACEE, size: 0x8, addend: 0x0, symName: __ZNSt3__117allocate_at_leastB8ue170006INS_9allocatorINS_6vectorI4NodeNS1_IS3_EEEEEEEENS_17allocation_resultINS_16allocator_traitsIT_E7pointerEEERS9_m, symObjAddr: 0x22E0, symBinAddr: 0x100003ECC, symSize: 0x3C }
  - { offsetInCU: 0x1AD31, offset: 0x1AD31, size: 0x8, addend: 0x0, symName: __ZNSt3__117__libcpp_allocateB8ue170006Emm, symObjAddr: 0x23EC, symBinAddr: 0x100003FD8, symSize: 0x60 }
  - { offsetInCU: 0x1AD8B, offset: 0x1AD8B, size: 0x8, addend: 0x0, symName: __ZNSt3__124__is_overaligned_for_newB8ue170006Em, symObjAddr: 0x244C, symBinAddr: 0x100004038, symSize: 0x20 }
  - { offsetInCU: 0x1ADB9, offset: 0x1ADB9, size: 0x8, addend: 0x0, symName: __ZNSt3__121__libcpp_operator_newB8ue170006IJmSt11align_val_tEEEPvDpT_, symObjAddr: 0x246C, symBinAddr: 0x100004058, symSize: 0x2C }
  - { offsetInCU: 0x1AE06, offset: 0x1AE06, size: 0x8, addend: 0x0, symName: __ZNSt3__121__libcpp_operator_newB8ue170006IJmEEEPvDpT_, symObjAddr: 0x2498, symBinAddr: 0x100004084, symSize: 0x24 }
  - { offsetInCU: 0x1AE3F, offset: 0x1AE3F, size: 0x8, addend: 0x0, symName: __ZNSt3__142__uninitialized_allocator_move_if_noexceptB8ue170006INS_9allocatorINS_6vectorI4NodeNS1_IS3_EEEEEENS_16reverse_iteratorIPS5_EES9_S9_EET2_RT_T0_T1_SA_, symObjAddr: 0x26C8, symBinAddr: 0x1000042B4, symSize: 0x12C }
  - { offsetInCU: 0x1AEDF, offset: 0x1AEDF, size: 0x8, addend: 0x0, symName: __ZNSt3__14swapB8ue170006IPNS_6vectorI4NodeNS_9allocatorIS2_EEEEEENS_9enable_ifIXaasr21is_move_constructibleIT_EE5valuesr18is_move_assignableIS8_EE5valueEvE4typeERS8_SB_, symObjAddr: 0x2840, symBinAddr: 0x10000442C, symSize: 0x3C }
  - { offsetInCU: 0x1AF30, offset: 0x1AF30, size: 0x8, addend: 0x0, symName: __ZNSt3__122__make_exception_guardB8ue170006INS_29_AllocatorDestroyRangeReverseINS_9allocatorINS_6vectorI4NodeNS2_IS4_EEEEEENS_16reverse_iteratorIPS6_EEEEEENS_28__exception_guard_exceptionsIT_EESD_, symObjAddr: 0x298C, symBinAddr: 0x100004578, symSize: 0x4C }
  - { offsetInCU: 0x1AF66, offset: 0x1AF66, size: 0x8, addend: 0x0, symName: __ZNSt3__1neB8ue170006IPNS_6vectorI4NodeNS_9allocatorIS2_EEEES6_EEbRKNS_16reverse_iteratorIT_EERKNS7_IT0_EE, symObjAddr: 0x2A1C, symBinAddr: 0x100004608, symSize: 0x48 }
  - { offsetInCU: 0x1AFB2, offset: 0x1AFB2, size: 0x8, addend: 0x0, symName: __ZNSt3__112__to_addressB8ue170006INS_16reverse_iteratorIPNS_6vectorI4NodeNS_9allocatorIS3_EEEEEEvEEu7__decayIDTclsr19__to_address_helperIT_EE6__callclsr3stdE7declvalIRKS9_EEEEESB_, symObjAddr: 0x2A94, symBinAddr: 0x100004680, symSize: 0x24 }
  - { offsetInCU: 0x1AFE8, offset: 0x1AFE8, size: 0x8, addend: 0x0, symName: __ZNSt3__112construct_atB8ue170006INS_6vectorI4NodeNS_9allocatorIS2_EEEEJS5_EPS5_EEPT_S8_DpOT0_, symObjAddr: 0x2BE4, symBinAddr: 0x1000047D0, symSize: 0x3C }
  - { offsetInCU: 0x1B081, offset: 0x1B081, size: 0x8, addend: 0x0, symName: __ZNSt3__14prevB8ue170006IPNS_6vectorI4NodeNS_9allocatorIS2_EEEEEENS_9enable_ifIXsr29__has_input_iterator_categoryIT_EE5valueES8_E4typeES8_NS_15iterator_traitsIS8_E15difference_typeE, symObjAddr: 0x2ED4, symBinAddr: 0x100004AC0, symSize: 0x3C }
  - { offsetInCU: 0x1B0C4, offset: 0x1B0C4, size: 0x8, addend: 0x0, symName: __ZNSt3__121__convert_to_integralB8ue170006El, symObjAddr: 0x2F48, symBinAddr: 0x100004B34, symSize: 0x14 }
  - { offsetInCU: 0x1B0F0, offset: 0x1B0F0, size: 0x8, addend: 0x0, symName: __ZNSt3__19__advanceB8ue170006IPNS_6vectorI4NodeNS_9allocatorIS2_EEEEEEvRT_NS_15iterator_traitsIS7_E15difference_typeENS_26random_access_iterator_tagE, symObjAddr: 0x2F5C, symBinAddr: 0x100004B48, symSize: 0x30 }
  - { offsetInCU: 0x1B139, offset: 0x1B139, size: 0x8, addend: 0x0, symName: __ZNSt3__119__allocator_destroyB8ue170006INS_9allocatorINS_6vectorI4NodeNS1_IS3_EEEEEENS_16reverse_iteratorINS7_IPS5_EEEESA_EEvRT_T0_T1_, symObjAddr: 0x3090, symBinAddr: 0x100004C7C, symSize: 0x70 }
  - { offsetInCU: 0x1B19E, offset: 0x1B19E, size: 0x8, addend: 0x0, symName: __ZNSt3__1neB8ue170006INS_16reverse_iteratorIPNS_6vectorI4NodeNS_9allocatorIS3_EEEEEES8_EEbRKNS1_IT_EERKNS1_IT0_EE, symObjAddr: 0x313C, symBinAddr: 0x100004D28, symSize: 0x60 }
  - { offsetInCU: 0x1B1EA, offset: 0x1B1EA, size: 0x8, addend: 0x0, symName: __ZNSt3__112__to_addressB8ue170006INS_16reverse_iteratorINS1_IPNS_6vectorI4NodeNS_9allocatorIS3_EEEEEEEEvEEu7__decayIDTclsr19__to_address_helperIT_EE6__callclsr3stdE7declvalIRKSA_EEEEESC_, symObjAddr: 0x31C4, symBinAddr: 0x100004DB0, symSize: 0x24 }
  - { offsetInCU: 0x1B220, offset: 0x1B220, size: 0x8, addend: 0x0, symName: __ZNSt3__110destroy_atB8ue170006INS_6vectorI4NodeNS_9allocatorIS2_EEEELi0EEEvPT_, symObjAddr: 0x323C, symBinAddr: 0x100004E28, symSize: 0x24 }
  - { offsetInCU: 0x1B257, offset: 0x1B257, size: 0x8, addend: 0x0, symName: __ZNSt3__112__destroy_atB8ue170006INS_6vectorI4NodeNS_9allocatorIS2_EEEELi0EEEvPT_, symObjAddr: 0x3260, symBinAddr: 0x100004E4C, symSize: 0x24 }
  - { offsetInCU: 0x1B28E, offset: 0x1B28E, size: 0x8, addend: 0x0, symName: __ZNSt3__112__to_addressB8ue170006I4NodeEEPT_S3_, symObjAddr: 0x35E0, symBinAddr: 0x1000051CC, symSize: 0x14 }
  - { offsetInCU: 0x1B2C3, offset: 0x1B2C3, size: 0x8, addend: 0x0, symName: __ZNSt3__110destroy_atB8ue170006I4NodeLi0EEEvPT_, symObjAddr: 0x35F4, symBinAddr: 0x1000051E0, symSize: 0x24 }
  - { offsetInCU: 0x1B2FA, offset: 0x1B2FA, size: 0x8, addend: 0x0, symName: __ZNSt3__112__destroy_atB8ue170006I4NodeLi0EEEvPT_, symObjAddr: 0x3618, symBinAddr: 0x100005204, symSize: 0x24 }
  - { offsetInCU: 0x1B331, offset: 0x1B331, size: 0x8, addend: 0x0, symName: __ZNSt3__119__libcpp_deallocateB8ue170006EPvmm, symObjAddr: 0x3748, symBinAddr: 0x100005334, symSize: 0x60 }
  - { offsetInCU: 0x1B396, offset: 0x1B396, size: 0x8, addend: 0x0, symName: __ZNSt3__127__do_deallocate_handle_sizeB8ue170006IJSt11align_val_tEEEvPvmDpT_, symObjAddr: 0x37A8, symBinAddr: 0x100005394, symSize: 0x30 }
  - { offsetInCU: 0x1B3E9, offset: 0x1B3E9, size: 0x8, addend: 0x0, symName: __ZNSt3__127__do_deallocate_handle_sizeB8ue170006IJEEEvPvmDpT_, symObjAddr: 0x37D8, symBinAddr: 0x1000053C4, symSize: 0x28 }
  - { offsetInCU: 0x1B427, offset: 0x1B427, size: 0x8, addend: 0x0, symName: __ZNSt3__124__libcpp_operator_deleteB8ue170006IJPvSt11align_val_tEEEvDpT_, symObjAddr: 0x3800, symBinAddr: 0x1000053EC, symSize: 0x2C }
  - { offsetInCU: 0x1B470, offset: 0x1B470, size: 0x8, addend: 0x0, symName: __ZNSt3__124__libcpp_operator_deleteB8ue170006IJPvEEEvDpT_, symObjAddr: 0x382C, symBinAddr: 0x100005418, symSize: 0x24 }
  - { offsetInCU: 0x1B4CE, offset: 0x1B4CE, size: 0x8, addend: 0x0, symName: __ZNSt3__14prevB8ue170006INS_16reverse_iteratorIPNS_6vectorI4NodeNS_9allocatorIS3_EEEEEEEENS_9enable_ifIXsr29__has_input_iterator_categoryIT_EE5valueESA_E4typeESA_NS_15iterator_traitsISA_E15difference_typeE, symObjAddr: 0x3934, symBinAddr: 0x100005520, symSize: 0x4C }
  - { offsetInCU: 0x1B511, offset: 0x1B511, size: 0x8, addend: 0x0, symName: __ZNSt3__19__advanceB8ue170006INS_16reverse_iteratorIPNS_6vectorI4NodeNS_9allocatorIS3_EEEEEEEEvRT_NS_15iterator_traitsIS9_E15difference_typeENS_26random_access_iterator_tagE, symObjAddr: 0x39B8, symBinAddr: 0x1000055A4, symSize: 0x2C }
  - { offsetInCU: 0x1B55A, offset: 0x1B55A, size: 0x8, addend: 0x0, symName: __ZNSt3__112__to_addressB8ue170006I4LineEEPT_S3_, symObjAddr: 0x430C, symBinAddr: 0x100005EF8, symSize: 0x14 }
  - { offsetInCU: 0x1B58F, offset: 0x1B58F, size: 0x8, addend: 0x0, symName: __ZNSt3__110destroy_atB8ue170006I4LineLi0EEEvPT_, symObjAddr: 0x4320, symBinAddr: 0x100005F0C, symSize: 0x24 }
  - { offsetInCU: 0x1B5C6, offset: 0x1B5C6, size: 0x8, addend: 0x0, symName: __ZNSt3__112__destroy_atB8ue170006I4LineLi0EEEvPT_, symObjAddr: 0x4344, symBinAddr: 0x100005F30, symSize: 0x24 }
  - { offsetInCU: 0x1B5FD, offset: 0x1B5FD, size: 0x8, addend: 0x0, symName: __ZNSt3__112__to_addressB8ue170006INS_12basic_stringIcNS_11char_traitsIcEENS_9allocatorIcEEEEEEPT_S8_, symObjAddr: 0x4760, symBinAddr: 0x10000634C, symSize: 0x14 }
  - { offsetInCU: 0x1B632, offset: 0x1B632, size: 0x8, addend: 0x0, symName: __ZNSt3__110destroy_atB8ue170006INS_12basic_stringIcNS_11char_traitsIcEENS_9allocatorIcEEEELi0EEEvPT_, symObjAddr: 0x4774, symBinAddr: 0x100006360, symSize: 0x24 }
  - { offsetInCU: 0x1B669, offset: 0x1B669, size: 0x8, addend: 0x0, symName: __ZNSt3__112__destroy_atB8ue170006INS_12basic_stringIcNS_11char_traitsIcEENS_9allocatorIcEEEELi0EEEvPT_, symObjAddr: 0x4798, symBinAddr: 0x100006384, symSize: 0x24 }
  - { offsetInCU: 0x1BF07, offset: 0x1BF07, size: 0x8, addend: 0x0, symName: __ZNSt3__110make_tupleB8ue170006IJbRA35_KcEEENS_5tupleIJDpNS_18__unwrap_ref_decayIT_E4typeEEEEDpOS6_, symObjAddr: 0x4B68, symBinAddr: 0x100006754, symSize: 0x38 }
  - { offsetInCU: 0x1C335, offset: 0x1C335, size: 0x8, addend: 0x0, symName: __ZNSt3__18count_ifB8ue170006INS_19istreambuf_iteratorIcNS_11char_traitsIcEEEEZN6Cenote11processFileERKNS_12basic_stringIcS3_NS_9allocatorIcEEEEEUlcE_EENS_15iterator_traitsIT_E15difference_typeESE_SE_T0_, symObjAddr: 0x4BD4, symBinAddr: 0x1000067C0, symSize: 0x80 }
  - { offsetInCU: 0x1C39D, offset: 0x1C39D, size: 0x8, addend: 0x0, symName: __ZNSt3__17getlineB8ue170006IcNS_11char_traitsIcEENS_9allocatorIcEEEERNS_13basic_istreamIT_T0_EES9_RNS_12basic_stringIS6_S7_T1_EE, symObjAddr: 0x4D40, symBinAddr: 0x10000692C, symSize: 0x5C }
  - { offsetInCU: 0x1C3F5, offset: 0x1C3F5, size: 0x8, addend: 0x0, symName: __ZNSt3__110make_tupleB8ue170006IJbRA28_KcEEENS_5tupleIJDpNS_18__unwrap_ref_decayIT_E4typeEEEEDpOS6_, symObjAddr: 0x520C, symBinAddr: 0x100006DF8, symSize: 0x38 }
  - { offsetInCU: 0x1C481, offset: 0x1C481, size: 0x8, addend: 0x0, symName: __ZNSt3__13getB8ue170006ILm0EJbPKcEEERNS_13tuple_elementIXT_ENS_5tupleIJDpT0_EEEE4typeERS7_, symObjAddr: 0x55C4, symBinAddr: 0x1000071B0, symSize: 0x24 }
  - { offsetInCU: 0x1C4C8, offset: 0x1C4C8, size: 0x8, addend: 0x0, symName: __ZNSt3__13getB8ue170006ILm1EJbPKcEEERNS_13tuple_elementIXT_ENS_5tupleIJDpT0_EEEE4typeERS7_, symObjAddr: 0x55E8, symBinAddr: 0x1000071D4, symSize: 0x28 }
  - { offsetInCU: 0x1C50F, offset: 0x1C50F, size: 0x8, addend: 0x0, symName: __ZNSt3__1eqB8ue170006IcNS_11char_traitsIcEEEEbRKNS_19istreambuf_iteratorIT_T0_EES8_, symObjAddr: 0x5670, symBinAddr: 0x10000725C, symSize: 0x30 }
  - { offsetInCU: 0x1C55B, offset: 0x1C55B, size: 0x8, addend: 0x0, symName: __ZNSt3__19use_facetB8ue170006INS_5ctypeIcEEEERKT_RKNS_6localeE, symObjAddr: 0x5A9C, symBinAddr: 0x100007688, symSize: 0x2C }
  - { offsetInCU: 0x1C939, offset: 0x1C939, size: 0x8, addend: 0x0, symName: __ZNSt3__122__make_exception_guardB8ue170006INS_6vectorINS_12basic_stringIcNS_11char_traitsIcEENS_9allocatorIcEEEENS5_IS7_EEE16__destroy_vectorEEENS_28__exception_guard_exceptionsIT_EESC_, symObjAddr: 0x5F94, symBinAddr: 0x100007B80, symSize: 0x40 }
  - { offsetInCU: 0x1C96E, offset: 0x1C96E, size: 0x8, addend: 0x0, symName: __ZNSt3__119__allocate_at_leastB8ue170006INS_9allocatorINS_12basic_stringIcNS_11char_traitsIcEENS1_IcEEEEEEEEDaRT_m, symObjAddr: 0x6230, symBinAddr: 0x100007E1C, symSize: 0x3C }
  - { offsetInCU: 0x1C9B1, offset: 0x1C9B1, size: 0x8, addend: 0x0, symName: __ZNSt3__117allocate_at_leastB8ue170006INS_9allocatorINS_12basic_stringIcNS_11char_traitsIcEENS1_IcEEEEEEEENS_17allocation_resultINS_16allocator_traitsIT_E7pointerEEERSA_m, symObjAddr: 0x6384, symBinAddr: 0x100007F70, symSize: 0x3C }
  - { offsetInCU: 0x1C9F4, offset: 0x1C9F4, size: 0x8, addend: 0x0, symName: __ZNSt3__130__uninitialized_allocator_copyB8ue170006INS_9allocatorINS_12basic_stringIcNS_11char_traitsIcEENS1_IcEEEEEEPS6_S8_S8_EET2_RT_T0_T1_S9_, symObjAddr: 0x64D0, symBinAddr: 0x1000080BC, symSize: 0x80 }
  - { offsetInCU: 0x1CA91, offset: 0x1CA91, size: 0x8, addend: 0x0, symName: __ZNSt3__114__unwrap_rangeB8ue170006IPNS_12basic_stringIcNS_11char_traitsIcEENS_9allocatorIcEEEES7_EEDaT_T0_, symObjAddr: 0x65C8, symBinAddr: 0x1000081B4, symSize: 0x3C }
  - { offsetInCU: 0x1CADD, offset: 0x1CADD, size: 0x8, addend: 0x0, symName: __ZNSt3__135__uninitialized_allocator_copy_implB8ue170006INS_9allocatorINS_12basic_stringIcNS_11char_traitsIcEENS1_IcEEEEEEPS6_S8_S8_EET2_RT_T0_T1_S9_, symObjAddr: 0x6604, symBinAddr: 0x1000081F0, symSize: 0xF4 }
  - { offsetInCU: 0x1CB7B, offset: 0x1CB7B, size: 0x8, addend: 0x0, symName: __ZNSt3__113__unwrap_iterB8ue170006IPNS_12basic_stringIcNS_11char_traitsIcEENS_9allocatorIcEEEENS_18__unwrap_iter_implIS7_Lb1EEELi0EEEDTclsrT0_8__unwrapclsr3stdE7declvalIT_EEEESB_, symObjAddr: 0x66F8, symBinAddr: 0x1000082E4, symSize: 0x24 }
  - { offsetInCU: 0x1CBBF, offset: 0x1CBBF, size: 0x8, addend: 0x0, symName: __ZNSt3__113__rewrap_iterB8ue170006IPNS_12basic_stringIcNS_11char_traitsIcEENS_9allocatorIcEEEES7_NS_18__unwrap_iter_implIS7_Lb1EEEEET_SA_T0_, symObjAddr: 0x671C, symBinAddr: 0x100008308, symSize: 0x3C }
  - { offsetInCU: 0x1CD7D, offset: 0x1CD7D, size: 0x8, addend: 0x0, symName: __ZNSt3__122__make_exception_guardB8ue170006INS_29_AllocatorDestroyRangeReverseINS_9allocatorINS_12basic_stringIcNS_11char_traitsIcEENS2_IcEEEEEEPS7_EEEENS_28__exception_guard_exceptionsIT_EESC_, symObjAddr: 0x6820, symBinAddr: 0x10000840C, symSize: 0x4C }
  - { offsetInCU: 0x1CDD8, offset: 0x1CDD8, size: 0x8, addend: 0x0, symName: __ZNSt3__112construct_atB8ue170006INS_12basic_stringIcNS_11char_traitsIcEENS_9allocatorIcEEEEJRS6_EPS6_EEPT_SA_DpOT0_, symObjAddr: 0x69C4, symBinAddr: 0x1000085B0, symSize: 0x3C }
  - { offsetInCU: 0x1CE48, offset: 0x1CE48, size: 0x8, addend: 0x0, symName: __ZNSt3__119__allocator_destroyB8ue170006INS_9allocatorINS_12basic_stringIcNS_11char_traitsIcEENS1_IcEEEEEENS_16reverse_iteratorIPS6_EESA_EEvRT_T0_T1_, symObjAddr: 0x6AB8, symBinAddr: 0x1000086A4, symSize: 0x70 }
  - { offsetInCU: 0x1CEAB, offset: 0x1CEAB, size: 0x8, addend: 0x0, symName: __ZNSt3__1neB8ue170006IPNS_12basic_stringIcNS_11char_traitsIcEENS_9allocatorIcEEEES7_EEbRKNS_16reverse_iteratorIT_EERKNS8_IT0_EE, symObjAddr: 0x6B5C, symBinAddr: 0x100008748, symSize: 0x48 }
  - { offsetInCU: 0x1CEF7, offset: 0x1CEF7, size: 0x8, addend: 0x0, symName: __ZNSt3__112__to_addressB8ue170006INS_16reverse_iteratorIPNS_12basic_stringIcNS_11char_traitsIcEENS_9allocatorIcEEEEEEvEEu7__decayIDTclsr19__to_address_helperIT_EE6__callclsr3stdE7declvalIRKSA_EEEEESC_, symObjAddr: 0x6BA4, symBinAddr: 0x100008790, symSize: 0x24 }
  - { offsetInCU: 0x1CF56, offset: 0x1CF56, size: 0x8, addend: 0x0, symName: __ZNSt3__14prevB8ue170006IPNS_12basic_stringIcNS_11char_traitsIcEENS_9allocatorIcEEEEEENS_9enable_ifIXsr29__has_input_iterator_categoryIT_EE5valueES9_E4typeES9_NS_15iterator_traitsIS9_E15difference_typeE, symObjAddr: 0x6C64, symBinAddr: 0x100008850, symSize: 0x3C }
  - { offsetInCU: 0x1CF99, offset: 0x1CF99, size: 0x8, addend: 0x0, symName: __ZNSt3__19__advanceB8ue170006IPNS_12basic_stringIcNS_11char_traitsIcEENS_9allocatorIcEEEEEEvRT_NS_15iterator_traitsIS8_E15difference_typeENS_26random_access_iterator_tagE, symObjAddr: 0x6CD8, symBinAddr: 0x1000088C4, symSize: 0x30 }
  - { offsetInCU: 0x1D035, offset: 0x1D035, size: 0x8, addend: 0x0, symName: __ZNSt3__1neB8ue170006IPKcEEbRKNS_11__wrap_iterIT_EES7_, symObjAddr: 0x7060, symBinAddr: 0x100008C4C, symSize: 0x34 }
  - { offsetInCU: 0x1D0AB, offset: 0x1D0AB, size: 0x8, addend: 0x0, symName: __ZNSt3__1eqB8ue170006IPKcEEbRKNS_11__wrap_iterIT_EES7_, symObjAddr: 0x7468, symBinAddr: 0x100009054, symSize: 0x48 }
  - { offsetInCU: 0x1D0EE, offset: 0x1D0EE, size: 0x8, addend: 0x0, symName: __ZNSt3__112construct_atB8ue170006INS_12basic_stringIcNS_11char_traitsIcEENS_9allocatorIcEEEEJRKS6_EPS6_EEPT_SB_DpOT0_, symObjAddr: 0x7660, symBinAddr: 0x10000924C, symSize: 0x3C }
  - { offsetInCU: 0x1D15E, offset: 0x1D15E, size: 0x8, addend: 0x0, symName: __ZNSt3__142__uninitialized_allocator_move_if_noexceptB8ue170006INS_9allocatorINS_12basic_stringIcNS_11char_traitsIcEENS1_IcEEEEEENS_16reverse_iteratorIPS6_EESA_SA_EET2_RT_T0_T1_SB_, symObjAddr: 0x7B08, symBinAddr: 0x1000096F4, symSize: 0x124 }
  - { offsetInCU: 0x1D1FE, offset: 0x1D1FE, size: 0x8, addend: 0x0, symName: __ZNSt3__14swapB8ue170006IPNS_12basic_stringIcNS_11char_traitsIcEENS_9allocatorIcEEEEEENS_9enable_ifIXaasr21is_move_constructibleIT_EE5valuesr18is_move_assignableIS9_EE5valueEvE4typeERS9_SC_, symObjAddr: 0x7C2C, symBinAddr: 0x100009818, symSize: 0x3C }
  - { offsetInCU: 0x1D24F, offset: 0x1D24F, size: 0x8, addend: 0x0, symName: __ZNSt3__122__make_exception_guardB8ue170006INS_29_AllocatorDestroyRangeReverseINS_9allocatorINS_12basic_stringIcNS_11char_traitsIcEENS2_IcEEEEEENS_16reverse_iteratorIPS7_EEEEEENS_28__exception_guard_exceptionsIT_EESE_, symObjAddr: 0x7C68, symBinAddr: 0x100009854, symSize: 0x4C }
  - { offsetInCU: 0x1D285, offset: 0x1D285, size: 0x8, addend: 0x0, symName: __ZNSt3__112construct_atB8ue170006INS_12basic_stringIcNS_11char_traitsIcEENS_9allocatorIcEEEEJS6_EPS6_EEPT_S9_DpOT0_, symObjAddr: 0x7E34, symBinAddr: 0x100009A20, symSize: 0x3C }
  - { offsetInCU: 0x1D2F5, offset: 0x1D2F5, size: 0x8, addend: 0x0, symName: __ZNSt3__119__allocator_destroyB8ue170006INS_9allocatorINS_12basic_stringIcNS_11char_traitsIcEENS1_IcEEEEEENS_16reverse_iteratorINS8_IPS6_EEEESB_EEvRT_T0_T1_, symObjAddr: 0x8070, symBinAddr: 0x100009C5C, symSize: 0x70 }
  - { offsetInCU: 0x1D35A, offset: 0x1D35A, size: 0x8, addend: 0x0, symName: __ZNSt3__1neB8ue170006INS_16reverse_iteratorIPNS_12basic_stringIcNS_11char_traitsIcEENS_9allocatorIcEEEEEES9_EEbRKNS1_IT_EERKNS1_IT0_EE, symObjAddr: 0x811C, symBinAddr: 0x100009D08, symSize: 0x60 }
  - { offsetInCU: 0x1D3A6, offset: 0x1D3A6, size: 0x8, addend: 0x0, symName: __ZNSt3__112__to_addressB8ue170006INS_16reverse_iteratorINS1_IPNS_12basic_stringIcNS_11char_traitsIcEENS_9allocatorIcEEEEEEEEvEEu7__decayIDTclsr19__to_address_helperIT_EE6__callclsr3stdE7declvalIRKSB_EEEEESD_, symObjAddr: 0x817C, symBinAddr: 0x100009D68, symSize: 0x24 }
  - { offsetInCU: 0x1D405, offset: 0x1D405, size: 0x8, addend: 0x0, symName: __ZNSt3__14prevB8ue170006INS_16reverse_iteratorIPNS_12basic_stringIcNS_11char_traitsIcEENS_9allocatorIcEEEEEEEENS_9enable_ifIXsr29__has_input_iterator_categoryIT_EE5valueESB_E4typeESB_NS_15iterator_traitsISB_E15difference_typeE, symObjAddr: 0x8278, symBinAddr: 0x100009E64, symSize: 0x4C }
  - { offsetInCU: 0x1D448, offset: 0x1D448, size: 0x8, addend: 0x0, symName: __ZNSt3__19__advanceB8ue170006INS_16reverse_iteratorIPNS_12basic_stringIcNS_11char_traitsIcEENS_9allocatorIcEEEEEEEEvRT_NS_15iterator_traitsISA_E15difference_typeENS_26random_access_iterator_tagE, symObjAddr: 0x82FC, symBinAddr: 0x100009EE8, symSize: 0x2C }
  - { offsetInCU: 0x1D491, offset: 0x1D491, size: 0x8, addend: 0x0, symName: __ZNSt3__18distanceB8ue170006IPNS_12basic_stringIcNS_11char_traitsIcEENS_9allocatorIcEEEEEENS_15iterator_traitsIT_E15difference_typeES9_S9_, symObjAddr: 0x87F8, symBinAddr: 0x10000A3E4, symSize: 0x2C }
  - { offsetInCU: 0x1D4D4, offset: 0x1D4D4, size: 0x8, addend: 0x0, symName: __ZNSt3__14nextB8ue170006IPNS_12basic_stringIcNS_11char_traitsIcEENS_9allocatorIcEEEEEENS_9enable_ifIXsr29__has_input_iterator_categoryIT_EE5valueES9_E4typeES9_NS_15iterator_traitsIS9_E15difference_typeE, symObjAddr: 0x8824, symBinAddr: 0x10000A410, symSize: 0x34 }
  - { offsetInCU: 0x1D517, offset: 0x1D517, size: 0x8, addend: 0x0, symName: __ZNSt3__14copyB8ue170006IPNS_12basic_stringIcNS_11char_traitsIcEENS_9allocatorIcEEEES7_EET0_T_S9_S8_, symObjAddr: 0x8858, symBinAddr: 0x10000A444, symSize: 0x40 }
  - { offsetInCU: 0x1D571, offset: 0x1D571, size: 0x8, addend: 0x0, symName: __ZNSt3__16__copyB8ue170006INS_17_ClassicAlgPolicyEPNS_12basic_stringIcNS_11char_traitsIcEENS_9allocatorIcEEEES8_S8_EENS_4pairIT0_T2_EESA_T1_SB_, symObjAddr: 0x8898, symBinAddr: 0x10000A484, symSize: 0x44 }
  - { offsetInCU: 0x1D5DD, offset: 0x1D5DD, size: 0x8, addend: 0x0, symName: __ZNSt3__123__dispatch_copy_or_moveB8ue170006INS_17_ClassicAlgPolicyENS_11__copy_loopIS1_EENS_14__copy_trivialEPNS_12basic_stringIcNS_11char_traitsIcEENS_9allocatorIcEEEESB_SB_EENS_4pairIT2_T4_EESD_T3_SE_, symObjAddr: 0x89BC, symBinAddr: 0x10000A5A8, symSize: 0x44 }
  - { offsetInCU: 0x1D65B, offset: 0x1D65B, size: 0x8, addend: 0x0, symName: __ZNSt3__121__unwrap_and_dispatchB8ue170006INS_10__overloadINS_11__copy_loopINS_17_ClassicAlgPolicyEEENS_14__copy_trivialEEEPNS_12basic_stringIcNS_11char_traitsIcEENS_9allocatorIcEEEESD_SD_Li0EEENS_4pairIT0_T2_EESF_T1_SG_, symObjAddr: 0x8A00, symBinAddr: 0x10000A5EC, symSize: 0xB4 }
  - { offsetInCU: 0x1D744, offset: 0x1D744, size: 0x8, addend: 0x0, symName: __ZNSt3__19make_pairB8ue170006IPNS_12basic_stringIcNS_11char_traitsIcEENS_9allocatorIcEEEES7_EENS_4pairINS_18__unwrap_ref_decayIT_E4typeENS9_IT0_E4typeEEEOSA_OSD_, symObjAddr: 0x8B3C, symBinAddr: 0x10000A728, symSize: 0x38 }
  - { offsetInCU: 0x1D793, offset: 0x1D793, size: 0x8, addend: 0x0, symName: __ZNSt3__114__rewrap_rangeB8ue170006IPNS_12basic_stringIcNS_11char_traitsIcEENS_9allocatorIcEEEES7_S7_EET0_S8_T1_, symObjAddr: 0x8B74, symBinAddr: 0x10000A760, symSize: 0x2C }
  - { offsetInCU: 0x1D7E8, offset: 0x1D7E8, size: 0x8, addend: 0x0, symName: __ZNSt3__110__distanceB8ue170006IPNS_12basic_stringIcNS_11char_traitsIcEENS_9allocatorIcEEEEEENS_15iterator_traitsIT_E15difference_typeES9_S9_NS_26random_access_iterator_tagE, symObjAddr: 0x8CE0, symBinAddr: 0x10000A8CC, symSize: 0x28 }
  - { offsetInCU: 0x1D85A, offset: 0x1D85A, size: 0x8, addend: 0x0, symName: __ZNSt3__112construct_atB8ue170006I4LineJRKS1_EPS1_EEPT_S6_DpOT0_, symObjAddr: 0x8FB4, symBinAddr: 0x10000ABA0, symSize: 0x3C }
  - { offsetInCU: 0x1D8CA, offset: 0x1D8CA, size: 0x8, addend: 0x0, symName: __ZNSt3__119__allocate_at_leastB8ue170006INS_9allocatorI4LineEEEEDaRT_m, symObjAddr: 0x94E0, symBinAddr: 0x10000B0CC, symSize: 0x3C }
  - { offsetInCU: 0x1D90D, offset: 0x1D90D, size: 0x8, addend: 0x0, symName: __ZNSt3__117allocate_at_leastB8ue170006INS_9allocatorI4LineEEEENS_17allocation_resultINS_16allocator_traitsIT_E7pointerEEERS6_m, symObjAddr: 0x95D4, symBinAddr: 0x10000B1C0, symSize: 0x3C }
  - { offsetInCU: 0x1D950, offset: 0x1D950, size: 0x8, addend: 0x0, symName: __ZNSt3__142__uninitialized_allocator_move_if_noexceptB8ue170006INS_9allocatorI4LineEENS_16reverse_iteratorIPS2_EES6_S6_EET2_RT_T0_T1_S7_, symObjAddr: 0x9710, symBinAddr: 0x10000B2FC, symSize: 0x12C }
  - { offsetInCU: 0x1D9F0, offset: 0x1D9F0, size: 0x8, addend: 0x0, symName: __ZNSt3__14swapB8ue170006IP4LineEENS_9enable_ifIXaasr21is_move_constructibleIT_EE5valuesr18is_move_assignableIS4_EE5valueEvE4typeERS4_S7_, symObjAddr: 0x9888, symBinAddr: 0x10000B474, symSize: 0x3C }
  - { offsetInCU: 0x1DA41, offset: 0x1DA41, size: 0x8, addend: 0x0, symName: __ZNSt3__122__make_exception_guardB8ue170006INS_29_AllocatorDestroyRangeReverseINS_9allocatorI4LineEENS_16reverse_iteratorIPS3_EEEEEENS_28__exception_guard_exceptionsIT_EESA_, symObjAddr: 0x998C, symBinAddr: 0x10000B578, symSize: 0x4C }
  - { offsetInCU: 0x1DA77, offset: 0x1DA77, size: 0x8, addend: 0x0, symName: __ZNSt3__1neB8ue170006IP4LineS2_EEbRKNS_16reverse_iteratorIT_EERKNS3_IT0_EE, symObjAddr: 0x9A1C, symBinAddr: 0x10000B608, symSize: 0x48 }
  - { offsetInCU: 0x1DAC3, offset: 0x1DAC3, size: 0x8, addend: 0x0, symName: __ZNSt3__112__to_addressB8ue170006INS_16reverse_iteratorIP4LineEEvEEu7__decayIDTclsr19__to_address_helperIT_EE6__callclsr3stdE7declvalIRKS5_EEEEES7_, symObjAddr: 0x9A94, symBinAddr: 0x10000B680, symSize: 0x24 }
  - { offsetInCU: 0x1DAF9, offset: 0x1DAF9, size: 0x8, addend: 0x0, symName: __ZNSt3__112construct_atB8ue170006I4LineJS1_EPS1_EEPT_S4_DpOT0_, symObjAddr: 0x9BE4, symBinAddr: 0x10000B7D0, symSize: 0x3C }
  - { offsetInCU: 0x1DB92, offset: 0x1DB92, size: 0x8, addend: 0x0, symName: __ZNSt3__14prevB8ue170006IP4LineEENS_9enable_ifIXsr29__has_input_iterator_categoryIT_EE5valueES4_E4typeES4_NS_15iterator_traitsIS4_E15difference_typeE, symObjAddr: 0x9DF8, symBinAddr: 0x10000B9E4, symSize: 0x3C }
  - { offsetInCU: 0x1DBD5, offset: 0x1DBD5, size: 0x8, addend: 0x0, symName: __ZNSt3__19__advanceB8ue170006IP4LineEEvRT_NS_15iterator_traitsIS3_E15difference_typeENS_26random_access_iterator_tagE, symObjAddr: 0x9E6C, symBinAddr: 0x10000BA58, symSize: 0x30 }
  - { offsetInCU: 0x1DC1E, offset: 0x1DC1E, size: 0x8, addend: 0x0, symName: __ZNSt3__119__allocator_destroyB8ue170006INS_9allocatorI4LineEENS_16reverse_iteratorINS4_IPS2_EEEES7_EEvRT_T0_T1_, symObjAddr: 0x9FA0, symBinAddr: 0x10000BB8C, symSize: 0x70 }
  - { offsetInCU: 0x1DC83, offset: 0x1DC83, size: 0x8, addend: 0x0, symName: __ZNSt3__1neB8ue170006INS_16reverse_iteratorIP4LineEES4_EEbRKNS1_IT_EERKNS1_IT0_EE, symObjAddr: 0xA04C, symBinAddr: 0x10000BC38, symSize: 0x60 }
  - { offsetInCU: 0x1DCCF, offset: 0x1DCCF, size: 0x8, addend: 0x0, symName: __ZNSt3__112__to_addressB8ue170006INS_16reverse_iteratorINS1_IP4LineEEEEvEEu7__decayIDTclsr19__to_address_helperIT_EE6__callclsr3stdE7declvalIRKS6_EEEEES8_, symObjAddr: 0xA0AC, symBinAddr: 0x10000BC98, symSize: 0x24 }
  - { offsetInCU: 0x1DD2E, offset: 0x1DD2E, size: 0x8, addend: 0x0, symName: __ZNSt3__14prevB8ue170006INS_16reverse_iteratorIP4LineEEEENS_9enable_ifIXsr29__has_input_iterator_categoryIT_EE5valueES6_E4typeES6_NS_15iterator_traitsIS6_E15difference_typeE, symObjAddr: 0xA1A8, symBinAddr: 0x10000BD94, symSize: 0x4C }
  - { offsetInCU: 0x1DD71, offset: 0x1DD71, size: 0x8, addend: 0x0, symName: __ZNSt3__19__advanceB8ue170006INS_16reverse_iteratorIP4LineEEEEvRT_NS_15iterator_traitsIS5_E15difference_typeENS_26random_access_iterator_tagE, symObjAddr: 0xA22C, symBinAddr: 0x10000BE18, symSize: 0x2C }
  - { offsetInCU: 0x1DDBA, offset: 0x1DDBA, size: 0x8, addend: 0x0, symName: __ZNSt3__112__to_addressB8ue170006IKcEEPT_S3_, symObjAddr: 0xA704, symBinAddr: 0x10000C2F0, symSize: 0x14 }
  - { offsetInCU: 0x1DE14, offset: 0x1DE14, size: 0x8, addend: 0x0, symName: __ZNSt3__112construct_atB8ue170006I4NodeJRKS1_EPS1_EEPT_S6_DpOT0_, symObjAddr: 0xA98C, symBinAddr: 0x10000C578, symSize: 0x3C }
  - { offsetInCU: 0x1DE84, offset: 0x1DE84, size: 0x8, addend: 0x0, symName: __ZNSt3__119__allocate_at_leastB8ue170006INS_9allocatorI4NodeEEEEDaRT_m, symObjAddr: 0xAEAC, symBinAddr: 0x10000CA98, symSize: 0x3C }
  - { offsetInCU: 0x1DEC7, offset: 0x1DEC7, size: 0x8, addend: 0x0, symName: __ZNSt3__117allocate_at_leastB8ue170006INS_9allocatorI4NodeEEEENS_17allocation_resultINS_16allocator_traitsIT_E7pointerEEERS6_m, symObjAddr: 0xAFA0, symBinAddr: 0x10000CB8C, symSize: 0x3C }
  - { offsetInCU: 0x1DF0A, offset: 0x1DF0A, size: 0x8, addend: 0x0, symName: __ZNSt3__142__uninitialized_allocator_move_if_noexceptB8ue170006INS_9allocatorI4NodeEENS_16reverse_iteratorIPS2_EES6_S6_EET2_RT_T0_T1_S7_, symObjAddr: 0xB0D8, symBinAddr: 0x10000CCC4, symSize: 0x12C }
  - { offsetInCU: 0x1DFAA, offset: 0x1DFAA, size: 0x8, addend: 0x0, symName: __ZNSt3__14swapB8ue170006IP4NodeEENS_9enable_ifIXaasr21is_move_constructibleIT_EE5valuesr18is_move_assignableIS4_EE5valueEvE4typeERS4_S7_, symObjAddr: 0xB250, symBinAddr: 0x10000CE3C, symSize: 0x3C }
  - { offsetInCU: 0x1DFFB, offset: 0x1DFFB, size: 0x8, addend: 0x0, symName: __ZNSt3__122__make_exception_guardB8ue170006INS_29_AllocatorDestroyRangeReverseINS_9allocatorI4NodeEENS_16reverse_iteratorIPS3_EEEEEENS_28__exception_guard_exceptionsIT_EESA_, symObjAddr: 0xB338, symBinAddr: 0x10000CF24, symSize: 0x4C }
  - { offsetInCU: 0x1E031, offset: 0x1E031, size: 0x8, addend: 0x0, symName: __ZNSt3__1neB8ue170006IP4NodeS2_EEbRKNS_16reverse_iteratorIT_EERKNS3_IT0_EE, symObjAddr: 0xB3C8, symBinAddr: 0x10000CFB4, symSize: 0x48 }
  - { offsetInCU: 0x1E07D, offset: 0x1E07D, size: 0x8, addend: 0x0, symName: __ZNSt3__112__to_addressB8ue170006INS_16reverse_iteratorIP4NodeEEvEEu7__decayIDTclsr19__to_address_helperIT_EE6__callclsr3stdE7declvalIRKS5_EEEEES7_, symObjAddr: 0xB440, symBinAddr: 0x10000D02C, symSize: 0x24 }
  - { offsetInCU: 0x1E0B3, offset: 0x1E0B3, size: 0x8, addend: 0x0, symName: __ZNSt3__112construct_atB8ue170006I4NodeJS1_EPS1_EEPT_S4_DpOT0_, symObjAddr: 0xB590, symBinAddr: 0x10000D17C, symSize: 0x3C }
  - { offsetInCU: 0x1E14C, offset: 0x1E14C, size: 0x8, addend: 0x0, symName: __ZNSt3__14prevB8ue170006IP4NodeEENS_9enable_ifIXsr29__has_input_iterator_categoryIT_EE5valueES4_E4typeES4_NS_15iterator_traitsIS4_E15difference_typeE, symObjAddr: 0xB6AC, symBinAddr: 0x10000D298, symSize: 0x3C }
  - { offsetInCU: 0x1E18F, offset: 0x1E18F, size: 0x8, addend: 0x0, symName: __ZNSt3__19__advanceB8ue170006IP4NodeEEvRT_NS_15iterator_traitsIS3_E15difference_typeENS_26random_access_iterator_tagE, symObjAddr: 0xB720, symBinAddr: 0x10000D30C, symSize: 0x28 }
  - { offsetInCU: 0x1E1D8, offset: 0x1E1D8, size: 0x8, addend: 0x0, symName: __ZNSt3__119__allocator_destroyB8ue170006INS_9allocatorI4NodeEENS_16reverse_iteratorINS4_IPS2_EEEES7_EEvRT_T0_T1_, symObjAddr: 0xB84C, symBinAddr: 0x10000D438, symSize: 0x70 }
  - { offsetInCU: 0x1E23D, offset: 0x1E23D, size: 0x8, addend: 0x0, symName: __ZNSt3__1neB8ue170006INS_16reverse_iteratorIP4NodeEES4_EEbRKNS1_IT_EERKNS1_IT0_EE, symObjAddr: 0xB8F8, symBinAddr: 0x10000D4E4, symSize: 0x60 }
  - { offsetInCU: 0x1E289, offset: 0x1E289, size: 0x8, addend: 0x0, symName: __ZNSt3__112__to_addressB8ue170006INS_16reverse_iteratorINS1_IP4NodeEEEEvEEu7__decayIDTclsr19__to_address_helperIT_EE6__callclsr3stdE7declvalIRKS6_EEEEES8_, symObjAddr: 0xB958, symBinAddr: 0x10000D544, symSize: 0x24 }
  - { offsetInCU: 0x1E2E8, offset: 0x1E2E8, size: 0x8, addend: 0x0, symName: __ZNSt3__14prevB8ue170006INS_16reverse_iteratorIP4NodeEEEENS_9enable_ifIXsr29__has_input_iterator_categoryIT_EE5valueES6_E4typeES6_NS_15iterator_traitsIS6_E15difference_typeE, symObjAddr: 0xBA54, symBinAddr: 0x10000D640, symSize: 0x4C }
  - { offsetInCU: 0x1E32B, offset: 0x1E32B, size: 0x8, addend: 0x0, symName: __ZNSt3__19__advanceB8ue170006INS_16reverse_iteratorIP4NodeEEEEvRT_NS_15iterator_traitsIS5_E15difference_typeENS_26random_access_iterator_tagE, symObjAddr: 0xBAD8, symBinAddr: 0x10000D6C4, symSize: 0x2C }
  - { offsetInCU: 0x1E374, offset: 0x1E374, size: 0x8, addend: 0x0, symName: __ZNSt3__1neB8ue170006IPNS_12basic_stringIcNS_11char_traitsIcEENS_9allocatorIcEEEEEEbRKNS_11__wrap_iterIT_EESC_, symObjAddr: 0xBE48, symBinAddr: 0x10000DA34, symSize: 0x34 }
  - { offsetInCU: 0x1E3B7, offset: 0x1E3B7, size: 0x8, addend: 0x0, symName: __ZNSt3__1plB8ue170006IcNS_11char_traitsIcEENS_9allocatorIcEEEENS_12basic_stringIT_T0_T1_EERKS9_PKS6_, symObjAddr: 0xBE94, symBinAddr: 0x10000DA80, symSize: 0x11C }
  - { offsetInCU: 0x1E458, offset: 0x1E458, size: 0x8, addend: 0x0, symName: __ZNSt3__1eqB8ue170006IPNS_12basic_stringIcNS_11char_traitsIcEENS_9allocatorIcEEEEEEbRKNS_11__wrap_iterIT_EESC_, symObjAddr: 0xC0E4, symBinAddr: 0x10000DCD0, symSize: 0x48 }
  - { offsetInCU: 0x1E49B, offset: 0x1E49B, size: 0x8, addend: 0x0, symName: __ZNSt3__112__to_addressB8ue170006IcEEPT_S2_, symObjAddr: 0xC1B4, symBinAddr: 0x10000DDA0, symSize: 0x14 }
  - { offsetInCU: 0x1E4D0, offset: 0x1E4D0, size: 0x8, addend: 0x0, symName: __ZNSt3__14copyB8ue170006IPKcPcEET0_T_S5_S4_, symObjAddr: 0xC944, symBinAddr: 0x10000E530, symSize: 0x40 }
  - { offsetInCU: 0x1E52A, offset: 0x1E52A, size: 0x8, addend: 0x0, symName: __ZNSt3__16__copyB8ue170006INS_17_ClassicAlgPolicyEPKcS3_PcEENS_4pairIT0_T2_EES6_T1_S7_, symObjAddr: 0xC984, symBinAddr: 0x10000E570, symSize: 0x44 }
  - { offsetInCU: 0x1E596, offset: 0x1E596, size: 0x8, addend: 0x0, symName: __ZNSt3__123__dispatch_copy_or_moveB8ue170006INS_17_ClassicAlgPolicyENS_11__copy_loopIS1_EENS_14__copy_trivialEPKcS6_PcEENS_4pairIT2_T4_EES9_T3_SA_, symObjAddr: 0xC9C8, symBinAddr: 0x10000E5B4, symSize: 0x44 }
  - { offsetInCU: 0x1E614, offset: 0x1E614, size: 0x8, addend: 0x0, symName: __ZNSt3__121__unwrap_and_dispatchB8ue170006INS_10__overloadINS_11__copy_loopINS_17_ClassicAlgPolicyEEENS_14__copy_trivialEEEPKcS8_PcLi0EEENS_4pairIT0_T2_EESB_T1_SC_, symObjAddr: 0xCA0C, symBinAddr: 0x10000E5F8, symSize: 0xB4 }
  - { offsetInCU: 0x1E6A2, offset: 0x1E6A2, size: 0x8, addend: 0x0, symName: __ZNSt3__114__unwrap_rangeB8ue170006IPKcS2_EEDaT_T0_, symObjAddr: 0xCAC0, symBinAddr: 0x10000E6AC, symSize: 0x3C }
  - { offsetInCU: 0x1E884, offset: 0x1E884, size: 0x8, addend: 0x0, symName: __ZNSt3__113__unwrap_iterB8ue170006IPcNS_18__unwrap_iter_implIS1_Lb1EEELi0EEEDTclsrT0_8__unwrapclsr3stdE7declvalIT_EEEES5_, symObjAddr: 0xCB44, symBinAddr: 0x10000E730, symSize: 0x24 }
  - { offsetInCU: 0x1E8C8, offset: 0x1E8C8, size: 0x8, addend: 0x0, symName: __ZNSt3__19make_pairB8ue170006IPKcPcEENS_4pairINS_18__unwrap_ref_decayIT_E4typeENS5_IT0_E4typeEEEOS6_OS9_, symObjAddr: 0xCB68, symBinAddr: 0x10000E754, symSize: 0x38 }
  - { offsetInCU: 0x1E917, offset: 0x1E917, size: 0x8, addend: 0x0, symName: __ZNSt3__114__rewrap_rangeB8ue170006IPKcS2_S2_EET0_S3_T1_, symObjAddr: 0xCBA0, symBinAddr: 0x10000E78C, symSize: 0x2C }
  - { offsetInCU: 0x1E96C, offset: 0x1E96C, size: 0x8, addend: 0x0, symName: __ZNSt3__113__rewrap_iterB8ue170006IPcS1_NS_18__unwrap_iter_implIS1_Lb1EEEEET_S4_T0_, symObjAddr: 0xCBCC, symBinAddr: 0x10000E7B8, symSize: 0x3C }
  - { offsetInCU: 0x1EB2A, offset: 0x1EB2A, size: 0x8, addend: 0x0, symName: __ZNSt3__113__unwrap_iterB8ue170006IPKcNS_18__unwrap_iter_implIS2_Lb1EEELi0EEEDTclsrT0_8__unwrapclsr3stdE7declvalIT_EEEES6_, symObjAddr: 0xCC60, symBinAddr: 0x10000E84C, symSize: 0x24 }
  - { offsetInCU: 0x1EBC1, offset: 0x1EBC1, size: 0x8, addend: 0x0, symName: __ZNSt3__119__copy_trivial_implB8ue170006IKccEENS_4pairIPT_PT0_EES4_S4_S6_, symObjAddr: 0xCD18, symBinAddr: 0x10000E904, symSize: 0x78 }
  - { offsetInCU: 0x1EC29, offset: 0x1EC29, size: 0x8, addend: 0x0, symName: __ZNSt3__119__constexpr_memmoveB8ue170006IcKcLi0EEEPT_S3_PT0_NS_15__element_countE, symObjAddr: 0xCD90, symBinAddr: 0x10000E97C, symSize: 0x64 }
  - { offsetInCU: 0x1EC97, offset: 0x1EC97, size: 0x8, addend: 0x0, symName: __ZNSt3__19make_pairB8ue170006IRPKcPcEENS_4pairINS_18__unwrap_ref_decayIT_E4typeENS6_IT0_E4typeEEEOS7_OSA_, symObjAddr: 0xCDF4, symBinAddr: 0x10000E9E0, symSize: 0x38 }
  - { offsetInCU: 0x1ED39, offset: 0x1ED39, size: 0x8, addend: 0x0, symName: __ZNSt3__113__rewrap_iterB8ue170006IPKcS2_NS_18__unwrap_iter_implIS2_Lb1EEEEET_S5_T0_, symObjAddr: 0xCF5C, symBinAddr: 0x10000EB48, symSize: 0x3C }
  - { offsetInCU: 0x1ED8E, offset: 0x1ED8E, size: 0x8, addend: 0x0, symName: __ZNSt3__16fill_nB8ue170006IPcmcEET_S2_T0_RKT1_, symObjAddr: 0xD028, symBinAddr: 0x10000EC14, symSize: 0x44 }
  - { offsetInCU: 0x1EDF1, offset: 0x1EDF1, size: 0x8, addend: 0x0, symName: __ZNSt3__18__fill_nB8ue170006IPcmcEET_S2_T0_RKT1_, symObjAddr: 0xD06C, symBinAddr: 0x10000EC58, symSize: 0x64 }
  - { offsetInCU: 0x1EE54, offset: 0x1EE54, size: 0x8, addend: 0x0, symName: __ZNSt3__121__convert_to_integralB8ue170006Em, symObjAddr: 0xD0D0, symBinAddr: 0x10000ECBC, symSize: 0x14 }
  - { offsetInCU: 0x1EFD7, offset: 0x1EFD7, size: 0x8, addend: 0x0, symName: __ZNSt3__1eqB8ue170006IcNS_11char_traitsIcEENS_9allocatorIcEEEEbRKNS_12basic_stringIT_T0_T1_EEPKS6_, symObjAddr: 0xD608, symBinAddr: 0x10000F1F4, symSize: 0x5C }
  - { offsetInCU: 0x1F04B, offset: 0x1F04B, size: 0x8, addend: 0x0, symName: __ZNSt3__1neB8ue170006IPcEEbRKNS_11__wrap_iterIT_EES6_, symObjAddr: 0xDF9C, symBinAddr: 0x10000FB88, symSize: 0x34 }
  - { offsetInCU: 0x1F08E, offset: 0x1F08E, size: 0x8, addend: 0x0, symName: __ZNSt3__1eqB8ue170006IPcEEbRKNS_11__wrap_iterIT_EES6_, symObjAddr: 0xE0B0, symBinAddr: 0x10000FC9C, symSize: 0x48 }
  - { offsetInCU: 0x1F0D1, offset: 0x1F0D1, size: 0x8, addend: 0x0, symName: __ZNSt3__19make_pairB8ue170006IRNS_6vectorINS_12basic_stringIcNS_11char_traitsIcEENS_9allocatorIcEEEENS5_IS7_EEEERS7_EENS_4pairINS_18__unwrap_ref_decayIT_E4typeENSD_IT0_E4typeEEEOSE_OSH_, symObjAddr: 0xE920, symBinAddr: 0x10001050C, symSize: 0x40 }
  - { offsetInCU: 0x1F120, offset: 0x1F120, size: 0x8, addend: 0x0, symName: __ZNSt3__19make_pairB8ue170006IRNS_6vectorINS_12basic_stringIcNS_11char_traitsIcEENS_9allocatorIcEEEENS5_IS7_EEEERA16_KcEENS_4pairINS_18__unwrap_ref_decayIT_E4typeENSF_IT0_E4typeEEEOSG_OSJ_, symObjAddr: 0xE960, symBinAddr: 0x10001054C, symSize: 0x40 }
  - { offsetInCU: 0x1F805, offset: 0x1F805, size: 0x8, addend: 0x0, symName: __ZNSt3__1plB8ue170006IcNS_11char_traitsIcEENS_9allocatorIcEEEENS_12basic_stringIT_T0_T1_EEOS9_RKS9_, symObjAddr: 0xEB10, symBinAddr: 0x1000106FC, symSize: 0x40 }
  - { offsetInCU: 0x1F85D, offset: 0x1F85D, size: 0x8, addend: 0x0, symName: __ZNSt3__1plB8ue170006IcNS_11char_traitsIcEENS_9allocatorIcEEEENS_12basic_stringIT_T0_T1_EEOS9_PKS6_, symObjAddr: 0xEB50, symBinAddr: 0x10001073C, symSize: 0x40 }
  - { offsetInCU: 0x1F8C0, offset: 0x1F8C0, size: 0x8, addend: 0x0, symName: __ZNSt3__1eqB8ue170006INS_9allocatorIcEEEEbRKNS_12basic_stringIcNS_11char_traitsIcEET_EES9_, symObjAddr: 0xF030, symBinAddr: 0x100010C1C, symSize: 0x148 }
  - { offsetInCU: 0x1F933, offset: 0x1F933, size: 0x8, addend: 0x0, symName: __ZNSt3__1rsB8ue170006IcNS_11char_traitsIcEENS_9allocatorIcEEEERNS_13basic_istreamIT_T0_EES9_RNS_12basic_stringIS6_S7_T1_EE, symObjAddr: 0xF4A0, symBinAddr: 0x10001108C, symSize: 0x31C }
  - { offsetInCU: 0x1FA02, offset: 0x1FA02, size: 0x8, addend: 0x0, symName: __ZNSt3__1eqB8ue170006IcNS_11char_traitsIcEEEEbNS_17basic_string_viewIT_T0_EES6_, symObjAddr: 0xFBB0, symBinAddr: 0x10001179C, symSize: 0xB0 }
  - { offsetInCU: 0x1FA51, offset: 0x1FA51, size: 0x8, addend: 0x0, symName: __ZNSt3__128__char_traits_length_checkedB8ue170006INS_11char_traitsIcEEEEmPKNT_9char_typeE, symObjAddr: 0xFEFC, symBinAddr: 0x100011AE8, symSize: 0x24 }
  - { offsetInCU: 0x1FA88, offset: 0x1FA88, size: 0x8, addend: 0x0, symName: __ZNSt3__1miB8ue170006IPKNS_12basic_stringIcNS_11char_traitsIcEENS_9allocatorIcEEEES8_EEDTmicldtfp_4baseEcldtfp0_4baseEERKNS_11__wrap_iterIT_EERKNSA_IT0_EE, symObjAddr: 0xFF20, symBinAddr: 0x100011B0C, symSize: 0x48 }
  - { offsetInCU: 0x1FAD4, offset: 0x1FAD4, size: 0x8, addend: 0x0, symName: __ZNSt3__14moveB8ue170006IPNS_12basic_stringIcNS_11char_traitsIcEENS_9allocatorIcEEEES7_EET0_T_S9_S8_, symObjAddr: 0xFF94, symBinAddr: 0x100011B80, symSize: 0x40 }
  - { offsetInCU: 0x1FB2E, offset: 0x1FB2E, size: 0x8, addend: 0x0, symName: __ZNSt3__16__moveB8ue170006INS_17_ClassicAlgPolicyEPNS_12basic_stringIcNS_11char_traitsIcEENS_9allocatorIcEEEES8_S8_EENS_4pairIT0_T2_EESA_T1_SB_, symObjAddr: 0x100A0, symBinAddr: 0x100011C8C, symSize: 0x44 }
  - { offsetInCU: 0x1FB9A, offset: 0x1FB9A, size: 0x8, addend: 0x0, symName: __ZNSt3__123__dispatch_copy_or_moveB8ue170006INS_17_ClassicAlgPolicyENS_11__move_loopIS1_EENS_14__move_trivialEPNS_12basic_stringIcNS_11char_traitsIcEENS_9allocatorIcEEEESB_SB_EENS_4pairIT2_T4_EESD_T3_SE_, symObjAddr: 0x100E4, symBinAddr: 0x100011CD0, symSize: 0x44 }
  - { offsetInCU: 0x1FC18, offset: 0x1FC18, size: 0x8, addend: 0x0, symName: __ZNSt3__121__unwrap_and_dispatchB8ue170006INS_10__overloadINS_11__move_loopINS_17_ClassicAlgPolicyEEENS_14__move_trivialEEEPNS_12basic_stringIcNS_11char_traitsIcEENS_9allocatorIcEEEESD_SD_Li0EEENS_4pairIT0_T2_EESF_T1_SG_, symObjAddr: 0x10128, symBinAddr: 0x100011D14, symSize: 0xB4 }
  - { offsetInCU: 0x1FD62, offset: 0x1FD62, size: 0x8, addend: 0x0, symName: __ZNSt3__1neB8ue170006IPNS_5tupleIJNS_12basic_stringIcNS_11char_traitsIcEENS_9allocatorIcEEEEiEEEEEbRKNS_11__wrap_iterIT_EESE_, symObjAddr: 0x10748, symBinAddr: 0x100012334, symSize: 0x34 }
  - { offsetInCU: 0x1FDA5, offset: 0x1FDA5, size: 0x8, addend: 0x0, symName: __ZNSt3__13getB8ue170006ILm1EJNS_12basic_stringIcNS_11char_traitsIcEENS_9allocatorIcEEEEiEEERNS_13tuple_elementIXT_ENS_5tupleIJDpT0_EEEE4typeERSB_, symObjAddr: 0x10794, symBinAddr: 0x100012380, symSize: 0x28 }
  - { offsetInCU: 0x1FDED, offset: 0x1FDED, size: 0x8, addend: 0x0, symName: __ZNSt3__13getB8ue170006ILm0EJNS_12basic_stringIcNS_11char_traitsIcEENS_9allocatorIcEEEEiEEERNS_13tuple_elementIXT_ENS_5tupleIJDpT0_EEEE4typeERSB_, symObjAddr: 0x107BC, symBinAddr: 0x1000123A8, symSize: 0x24 }
  - { offsetInCU: 0x1FE35, offset: 0x1FE35, size: 0x8, addend: 0x0, symName: __ZNSt3__1neB8ue170006IP4LineEEbRKNS_11__wrap_iterIT_EES7_, symObjAddr: 0x10A4C, symBinAddr: 0x100012638, symSize: 0x34 }
  - { offsetInCU: 0x1FE78, offset: 0x1FE78, size: 0x8, addend: 0x0, symName: __ZNSt3__1neB8ue170006IPNS_6vectorI4NodeNS_9allocatorIS2_EEEEEEbRKNS_11__wrap_iterIT_EESB_, symObjAddr: 0x10C14, symBinAddr: 0x100012800, symSize: 0x34 }
  - { offsetInCU: 0x1FED5, offset: 0x1FED5, size: 0x8, addend: 0x0, symName: __ZNSt3__122__make_exception_guardB8ue170006INS_6vectorINS_5tupleIJNS_12basic_stringIcNS_11char_traitsIcEENS_9allocatorIcEEEEiEEENS6_IS9_EEE16__destroy_vectorEEENS_28__exception_guard_exceptionsIT_EESE_, symObjAddr: 0x11070, symBinAddr: 0x100012C5C, symSize: 0x40 }
  - { offsetInCU: 0x1FF0A, offset: 0x1FF0A, size: 0x8, addend: 0x0, symName: __ZNSt3__119__allocate_at_leastB8ue170006INS_9allocatorINS_5tupleIJNS_12basic_stringIcNS_11char_traitsIcEENS1_IcEEEEiEEEEEEEDaRT_m, symObjAddr: 0x11470, symBinAddr: 0x10001305C, symSize: 0x3C }
  - { offsetInCU: 0x1FF4D, offset: 0x1FF4D, size: 0x8, addend: 0x0, symName: __ZNSt3__117allocate_at_leastB8ue170006INS_9allocatorINS_5tupleIJNS_12basic_stringIcNS_11char_traitsIcEENS1_IcEEEEiEEEEEEENS_17allocation_resultINS_16allocator_traitsIT_E7pointerEEERSC_m, symObjAddr: 0x11630, symBinAddr: 0x10001321C, symSize: 0x3C }
  - { offsetInCU: 0x1FF90, offset: 0x1FF90, size: 0x8, addend: 0x0, symName: __ZNSt3__112__to_addressB8ue170006INS_5tupleIJNS_12basic_stringIcNS_11char_traitsIcEENS_9allocatorIcEEEEiEEEEEPT_SA_, symObjAddr: 0x117FC, symBinAddr: 0x1000133E8, symSize: 0x14 }
  - { offsetInCU: 0x1FFC5, offset: 0x1FFC5, size: 0x8, addend: 0x0, symName: __ZNSt3__130__uninitialized_allocator_copyB8ue170006INS_9allocatorINS_5tupleIJNS_12basic_stringIcNS_11char_traitsIcEENS1_IcEEEEiEEEEEPKS8_SB_PS8_EET2_RT_T0_T1_SD_, symObjAddr: 0x118AC, symBinAddr: 0x100013498, symSize: 0x80 }
  - { offsetInCU: 0x20062, offset: 0x20062, size: 0x8, addend: 0x0, symName: __ZNSt3__114__unwrap_rangeB8ue170006IPKNS_5tupleIJNS_12basic_stringIcNS_11char_traitsIcEENS_9allocatorIcEEEEiEEESA_EEDaT_T0_, symObjAddr: 0x1199C, symBinAddr: 0x100013588, symSize: 0x3C }
  - { offsetInCU: 0x200AE, offset: 0x200AE, size: 0x8, addend: 0x0, symName: __ZNSt3__135__uninitialized_allocator_copy_implB8ue170006INS_9allocatorINS_5tupleIJNS_12basic_stringIcNS_11char_traitsIcEENS1_IcEEEEiEEEEEPKS8_SB_PS8_EET2_RT_T0_T1_SD_, symObjAddr: 0x119D8, symBinAddr: 0x1000135C4, symSize: 0xF4 }
  - { offsetInCU: 0x2014C, offset: 0x2014C, size: 0x8, addend: 0x0, symName: __ZNSt3__113__unwrap_iterB8ue170006IPNS_5tupleIJNS_12basic_stringIcNS_11char_traitsIcEENS_9allocatorIcEEEEiEEENS_18__unwrap_iter_implIS9_Lb1EEELi0EEEDTclsrT0_8__unwrapclsr3stdE7declvalIT_EEEESD_, symObjAddr: 0x11ACC, symBinAddr: 0x1000136B8, symSize: 0x24 }
  - { offsetInCU: 0x20190, offset: 0x20190, size: 0x8, addend: 0x0, symName: __ZNSt3__113__rewrap_iterB8ue170006IPNS_5tupleIJNS_12basic_stringIcNS_11char_traitsIcEENS_9allocatorIcEEEEiEEES9_NS_18__unwrap_iter_implIS9_Lb1EEEEET_SC_T0_, symObjAddr: 0x11AF0, symBinAddr: 0x1000136DC, symSize: 0x3C }
  - { offsetInCU: 0x20334, offset: 0x20334, size: 0x8, addend: 0x0, symName: __ZNSt3__113__unwrap_iterB8ue170006IPKNS_5tupleIJNS_12basic_stringIcNS_11char_traitsIcEENS_9allocatorIcEEEEiEEENS_18__unwrap_iter_implISA_Lb1EEELi0EEEDTclsrT0_8__unwrapclsr3stdE7declvalIT_EEEESE_, symObjAddr: 0x11B84, symBinAddr: 0x100013770, symSize: 0x24 }
  - { offsetInCU: 0x203CB, offset: 0x203CB, size: 0x8, addend: 0x0, symName: __ZNSt3__112__to_addressB8ue170006IKNS_5tupleIJNS_12basic_stringIcNS_11char_traitsIcEENS_9allocatorIcEEEEiEEEEEPT_SB_, symObjAddr: 0x11C08, symBinAddr: 0x1000137F4, symSize: 0x14 }
  - { offsetInCU: 0x20400, offset: 0x20400, size: 0x8, addend: 0x0, symName: __ZNSt3__122__make_exception_guardB8ue170006INS_29_AllocatorDestroyRangeReverseINS_9allocatorINS_5tupleIJNS_12basic_stringIcNS_11char_traitsIcEENS2_IcEEEEiEEEEEPS9_EEEENS_28__exception_guard_exceptionsIT_EESE_, symObjAddr: 0x11C50, symBinAddr: 0x10001383C, symSize: 0x4C }
  - { offsetInCU: 0x2045B, offset: 0x2045B, size: 0x8, addend: 0x0, symName: __ZNSt3__112construct_atB8ue170006INS_5tupleIJNS_12basic_stringIcNS_11char_traitsIcEENS_9allocatorIcEEEEiEEEJRKS8_EPS8_EEPT_SD_DpOT0_, symObjAddr: 0x11DF4, symBinAddr: 0x1000139E0, symSize: 0x3C }
  - { offsetInCU: 0x204CB, offset: 0x204CB, size: 0x8, addend: 0x0, symName: __ZNSt3__119__allocator_destroyB8ue170006INS_9allocatorINS_5tupleIJNS_12basic_stringIcNS_11char_traitsIcEENS1_IcEEEEiEEEEENS_16reverse_iteratorIPS8_EESC_EEvRT_T0_T1_, symObjAddr: 0x11FF8, symBinAddr: 0x100013BE4, symSize: 0x70 }
  - { offsetInCU: 0x2052E, offset: 0x2052E, size: 0x8, addend: 0x0, symName: __ZNSt3__1neB8ue170006IPNS_5tupleIJNS_12basic_stringIcNS_11char_traitsIcEENS_9allocatorIcEEEEiEEES9_EEbRKNS_16reverse_iteratorIT_EERKNSA_IT0_EE, symObjAddr: 0x1209C, symBinAddr: 0x100013C88, symSize: 0x48 }
  - { offsetInCU: 0x2057A, offset: 0x2057A, size: 0x8, addend: 0x0, symName: __ZNSt3__112__to_addressB8ue170006INS_16reverse_iteratorIPNS_5tupleIJNS_12basic_stringIcNS_11char_traitsIcEENS_9allocatorIcEEEEiEEEEEvEEu7__decayIDTclsr19__to_address_helperIT_EE6__callclsr3stdE7declvalIRKSC_EEEEESE_, symObjAddr: 0x1210C, symBinAddr: 0x100013CF8, symSize: 0x24 }
  - { offsetInCU: 0x205B0, offset: 0x205B0, size: 0x8, addend: 0x0, symName: __ZNSt3__110destroy_atB8ue170006INS_5tupleIJNS_12basic_stringIcNS_11char_traitsIcEENS_9allocatorIcEEEEiEEELi0EEEvPT_, symObjAddr: 0x12168, symBinAddr: 0x100013D54, symSize: 0x24 }
  - { offsetInCU: 0x205E7, offset: 0x205E7, size: 0x8, addend: 0x0, symName: __ZNSt3__112__destroy_atB8ue170006INS_5tupleIJNS_12basic_stringIcNS_11char_traitsIcEENS_9allocatorIcEEEEiEEELi0EEEvPT_, symObjAddr: 0x1218C, symBinAddr: 0x100013D78, symSize: 0x24 }
  - { offsetInCU: 0x20647, offset: 0x20647, size: 0x8, addend: 0x0, symName: __ZNSt3__14prevB8ue170006IPNS_5tupleIJNS_12basic_stringIcNS_11char_traitsIcEENS_9allocatorIcEEEEiEEEEENS_9enable_ifIXsr29__has_input_iterator_categoryIT_EE5valueESB_E4typeESB_NS_15iterator_traitsISB_E15difference_typeE, symObjAddr: 0x12214, symBinAddr: 0x100013E00, symSize: 0x3C }
  - { offsetInCU: 0x2068A, offset: 0x2068A, size: 0x8, addend: 0x0, symName: __ZNSt3__19__advanceB8ue170006IPNS_5tupleIJNS_12basic_stringIcNS_11char_traitsIcEENS_9allocatorIcEEEEiEEEEEvRT_NS_15iterator_traitsISA_E15difference_typeENS_26random_access_iterator_tagE, symObjAddr: 0x12288, symBinAddr: 0x100013E74, symSize: 0x28 }
  - { offsetInCU: 0x20726, offset: 0x20726, size: 0x8, addend: 0x0, symName: __ZNSt3__1eqB8ue170006IPNS_6vectorI4NodeNS_9allocatorIS2_EEEEEEbRKNS_11__wrap_iterIT_EESB_, symObjAddr: 0x12724, symBinAddr: 0x100014310, symSize: 0x48 }
  - { offsetInCU: 0x20769, offset: 0x20769, size: 0x8, addend: 0x0, symName: __ZNSt3__112construct_atB8ue170006INS_5tupleIJNS_12basic_stringIcNS_11char_traitsIcEENS_9allocatorIcEEEEiEEEJS8_EPS8_EEPT_SB_DpOT0_, symObjAddr: 0x1291C, symBinAddr: 0x100014508, symSize: 0x3C }
  - { offsetInCU: 0x207D9, offset: 0x207D9, size: 0x8, addend: 0x0, symName: __ZNSt3__142__uninitialized_allocator_move_if_noexceptB8ue170006INS_9allocatorINS_5tupleIJNS_12basic_stringIcNS_11char_traitsIcEENS1_IcEEEEiEEEEENS_16reverse_iteratorIPS8_EESC_SC_EET2_RT_T0_T1_SD_, symObjAddr: 0x12EC8, symBinAddr: 0x100014AB4, symSize: 0x124 }
  - { offsetInCU: 0x20879, offset: 0x20879, size: 0x8, addend: 0x0, symName: __ZNSt3__14swapB8ue170006IPNS_5tupleIJNS_12basic_stringIcNS_11char_traitsIcEENS_9allocatorIcEEEEiEEEEENS_9enable_ifIXaasr21is_move_constructibleIT_EE5valuesr18is_move_assignableISB_EE5valueEvE4typeERSB_SE_, symObjAddr: 0x12FEC, symBinAddr: 0x100014BD8, symSize: 0x3C }
  - { offsetInCU: 0x208CA, offset: 0x208CA, size: 0x8, addend: 0x0, symName: __ZNSt3__122__make_exception_guardB8ue170006INS_29_AllocatorDestroyRangeReverseINS_9allocatorINS_5tupleIJNS_12basic_stringIcNS_11char_traitsIcEENS2_IcEEEEiEEEEENS_16reverse_iteratorIPS9_EEEEEENS_28__exception_guard_exceptionsIT_EESG_, symObjAddr: 0x13028, symBinAddr: 0x100014C14, symSize: 0x4C }
  - { offsetInCU: 0x20900, offset: 0x20900, size: 0x8, addend: 0x0, symName: __ZNSt3__119__allocator_destroyB8ue170006INS_9allocatorINS_5tupleIJNS_12basic_stringIcNS_11char_traitsIcEENS1_IcEEEEiEEEEENS_16reverse_iteratorINSA_IPS8_EEEESD_EEvRT_T0_T1_, symObjAddr: 0x132C8, symBinAddr: 0x100014EB4, symSize: 0x70 }
  - { offsetInCU: 0x20965, offset: 0x20965, size: 0x8, addend: 0x0, symName: __ZNSt3__1neB8ue170006INS_16reverse_iteratorIPNS_5tupleIJNS_12basic_stringIcNS_11char_traitsIcEENS_9allocatorIcEEEEiEEEEESB_EEbRKNS1_IT_EERKNS1_IT0_EE, symObjAddr: 0x13374, symBinAddr: 0x100014F60, symSize: 0x60 }
  - { offsetInCU: 0x209B1, offset: 0x209B1, size: 0x8, addend: 0x0, symName: __ZNSt3__112__to_addressB8ue170006INS_16reverse_iteratorINS1_IPNS_5tupleIJNS_12basic_stringIcNS_11char_traitsIcEENS_9allocatorIcEEEEiEEEEEEEvEEu7__decayIDTclsr19__to_address_helperIT_EE6__callclsr3stdE7declvalIRKSD_EEEEESF_, symObjAddr: 0x133D4, symBinAddr: 0x100014FC0, symSize: 0x24 }
  - { offsetInCU: 0x20A10, offset: 0x20A10, size: 0x8, addend: 0x0, symName: __ZNSt3__14prevB8ue170006INS_16reverse_iteratorIPNS_5tupleIJNS_12basic_stringIcNS_11char_traitsIcEENS_9allocatorIcEEEEiEEEEEEENS_9enable_ifIXsr29__has_input_iterator_categoryIT_EE5valueESD_E4typeESD_NS_15iterator_traitsISD_E15difference_typeE, symObjAddr: 0x134D0, symBinAddr: 0x1000150BC, symSize: 0x4C }
  - { offsetInCU: 0x20A53, offset: 0x20A53, size: 0x8, addend: 0x0, symName: __ZNSt3__19__advanceB8ue170006INS_16reverse_iteratorIPNS_5tupleIJNS_12basic_stringIcNS_11char_traitsIcEENS_9allocatorIcEEEEiEEEEEEEvRT_NS_15iterator_traitsISC_E15difference_typeENS_26random_access_iterator_tagE, symObjAddr: 0x13554, symBinAddr: 0x100015140, symSize: 0x2C }
  - { offsetInCU: 0x20A9C, offset: 0x20A9C, size: 0x8, addend: 0x0, symName: __ZNSt3__1eqB8ue170006IPNS_5tupleIJNS_12basic_stringIcNS_11char_traitsIcEENS_9allocatorIcEEEEiEEEEEbRKNS_11__wrap_iterIT_EESE_, symObjAddr: 0x13984, symBinAddr: 0x100015570, symSize: 0x48 }
  - { offsetInCU: 0x20ADF, offset: 0x20ADF, size: 0x8, addend: 0x0, symName: __ZNSt3__1eqB8ue170006IP4LineEEbRKNS_11__wrap_iterIT_EES7_, symObjAddr: 0x13B00, symBinAddr: 0x1000156EC, symSize: 0x48 }
  - { offsetInCU: 0x20B22, offset: 0x20B22, size: 0x8, addend: 0x0, symName: __ZNSt3__116__pad_and_outputB8ue170006IcNS_11char_traitsIcEEEENS_19ostreambuf_iteratorIT_T0_EES6_PKS4_S8_S8_RNS_8ios_baseES4_, symObjAddr: 0x14034, symBinAddr: 0x100015C20, symSize: 0x240 }
  - { offsetInCU: 0x21463, offset: 0x21463, size: 0x8, addend: 0x0, symName: __ZSt28__throw_bad_array_new_lengthB8ue170006v, symObjAddr: 0x23B8, symBinAddr: 0x100003FA4, symSize: 0x34 }
  - { offsetInCU: 0x222B3, offset: 0x222B3, size: 0x8, addend: 0x0, symName: __ZNSt3__16vectorINS0_I4NodeNS_9allocatorIS1_EEEENS2_IS4_EEE26__swap_out_circular_bufferERNS_14__split_bufferIS4_RS5_EE, symObjAddr: 0x1870, symBinAddr: 0x10000345C, symSize: 0x110 }
  - { offsetInCU: 0x22A99, offset: 0x22A99, size: 0x8, addend: 0x0, symName: __ZNSt3__16vectorINS_12basic_stringIcNS_11char_traitsIcEENS_9allocatorIcEEEENS4_IS6_EEE26__swap_out_circular_bufferERNS_14__split_bufferIS6_RS7_EE, symObjAddr: 0x7794, symBinAddr: 0x100009380, symSize: 0x110 }
  - { offsetInCU: 0x22B21, offset: 0x22B21, size: 0x8, addend: 0x0, symName: __ZNSt3__16vectorI4LineNS_9allocatorIS1_EEE26__swap_out_circular_bufferERNS_14__split_bufferIS1_RS3_EE, symObjAddr: 0x9184, symBinAddr: 0x10000AD70, symSize: 0x110 }
  - { offsetInCU: 0x22BCB, offset: 0x22BCB, size: 0x8, addend: 0x0, symName: __ZNSt3__16vectorI4NodeNS_9allocatorIS1_EEE26__swap_out_circular_bufferERNS_14__split_bufferIS1_RS3_EE, symObjAddr: 0xAB5C, symBinAddr: 0x10000C748, symSize: 0x110 }
  - { offsetInCU: 0x22F14, offset: 0x22F14, size: 0x8, addend: 0x0, symName: __ZNSt3__16vectorINS_5tupleIJNS_12basic_stringIcNS_11char_traitsIcEENS_9allocatorIcEEEEiEEENS5_IS8_EEE26__swap_out_circular_bufferERNS_14__split_bufferIS8_RS9_EE, symObjAddr: 0x12B60, symBinAddr: 0x10001474C, symSize: 0x110 }
  - { offsetInCU: 0x235C1, offset: 0x235C1, size: 0x8, addend: 0x0, symName: __Z7toloweri, symObjAddr: 0xDFE8, symBinAddr: 0x10000FBD4, symSize: 0x24 }
  - { offsetInCU: 0x252FA, offset: 0x252FA, size: 0x8, addend: 0x0, symName: _main, symObjAddr: 0x0, symBinAddr: 0x100001BEC, symSize: 0x2F8 }
  - { offsetInCU: 0x2535C, offset: 0x2535C, size: 0x8, addend: 0x0, symName: __ZNSt3__112basic_stringIcNS_11char_traitsIcEENS_9allocatorIcEEEC1B8ue170006ILi0EEEPKc, symObjAddr: 0x2F8, symBinAddr: 0x100001EE4, symSize: 0x34 }
  - { offsetInCU: 0x25694, offset: 0x25694, size: 0x8, addend: 0x0, symName: __ZN6CenoteC1Ev, symObjAddr: 0x5F4, symBinAddr: 0x1000021E0, symSize: 0x2C }
  - { offsetInCU: 0x256BE, offset: 0x256BE, size: 0x8, addend: 0x0, symName: __ZN6Cenote11processFileERKNSt3__112basic_stringIcNS0_11char_traitsIcEENS0_9allocatorIcEEEE, symObjAddr: 0x620, symBinAddr: 0x10000220C, symSize: 0x3DC }
  - { offsetInCU: 0x25764, offset: 0x25764, size: 0x8, addend: 0x0, symName: __ZNSt3__113basic_ostreamIcNS_11char_traitsIcEEElsB8ue170006EPFRS3_S4_E, symObjAddr: 0xA48, symBinAddr: 0x100002634, symSize: 0x2C }
  - { offsetInCU: 0x25798, offset: 0x25798, size: 0x8, addend: 0x0, symName: __ZNSt3__112basic_stringIcNS_11char_traitsIcEENS_9allocatorIcEEEC1B8ue170006Ev, symObjAddr: 0xACC, symBinAddr: 0x1000026B8, symSize: 0x2C }
  - { offsetInCU: 0x257C2, offset: 0x257C2, size: 0x8, addend: 0x0, symName: __ZN6Cenote14processCommandENSt3__112basic_stringIcNS0_11char_traitsIcEENS0_9allocatorIcEEEE, symObjAddr: 0xAF8, symBinAddr: 0x1000026E4, symSize: 0x248 }
  - { offsetInCU: 0x25824, offset: 0x25824, size: 0x8, addend: 0x0, symName: __ZNSt3__15tupleIJbNS_12basic_stringIcNS_11char_traitsIcEENS_9allocatorIcEEEEEED1Ev, symObjAddr: 0xD40, symBinAddr: 0x10000292C, symSize: 0x2C }
  - { offsetInCU: 0x25851, offset: 0x25851, size: 0x8, addend: 0x0, symName: __ZN6CenoteD1Ev, symObjAddr: 0xD6C, symBinAddr: 0x100002958, symSize: 0x2C }
  - { offsetInCU: 0x2587D, offset: 0x2587D, size: 0x8, addend: 0x0, symName: __ZNSt3__112basic_stringIcNS_11char_traitsIcEENS_9allocatorIcEEEC2B8ue170006ILi0EEEPKc, symObjAddr: 0xD98, symBinAddr: 0x100002984, symSize: 0x58 }
  - { offsetInCU: 0x258C2, offset: 0x258C2, size: 0x8, addend: 0x0, symName: __ZNSt3__117__compressed_pairINS_12basic_stringIcNS_11char_traitsIcEENS_9allocatorIcEEE5__repES5_EC1B8ue170006INS_18__default_init_tagESA_EEOT_OT0_, symObjAddr: 0xDF0, symBinAddr: 0x1000029DC, symSize: 0x3C }
  - { offsetInCU: 0x2591A, offset: 0x2591A, size: 0x8, addend: 0x0, symName: __ZNSt3__111char_traitsIcE6lengthB8ue170006EPKc, symObjAddr: 0xE2C, symBinAddr: 0x100002A18, symSize: 0x34 }
  - { offsetInCU: 0x2593D, offset: 0x2593D, size: 0x8, addend: 0x0, symName: __ZNSt3__117__compressed_pairINS_12basic_stringIcNS_11char_traitsIcEENS_9allocatorIcEEE5__repES5_EC2B8ue170006INS_18__default_init_tagESA_EEOT_OT0_, symObjAddr: 0xE60, symBinAddr: 0x100002A4C, symSize: 0x3C }
  - { offsetInCU: 0x25995, offset: 0x25995, size: 0x8, addend: 0x0, symName: __ZNSt3__122__compressed_pair_elemINS_12basic_stringIcNS_11char_traitsIcEENS_9allocatorIcEEE5__repELi0ELb0EEC2B8ue170006ENS_18__default_init_tagE, symObjAddr: 0xE9C, symBinAddr: 0x100002A88, symSize: 0x14 }
  - { offsetInCU: 0x259C9, offset: 0x259C9, size: 0x8, addend: 0x0, symName: __ZNSt3__122__compressed_pair_elemINS_9allocatorIcEELi1ELb1EEC2B8ue170006ENS_18__default_init_tagE, symObjAddr: 0xEB0, symBinAddr: 0x100002A9C, symSize: 0x2C }
  - { offsetInCU: 0x259FD, offset: 0x259FD, size: 0x8, addend: 0x0, symName: __ZNSt3__19allocatorIcEC2B8ue170006Ev, symObjAddr: 0xEDC, symBinAddr: 0x100002AC8, symSize: 0x2C }
  - { offsetInCU: 0x25A27, offset: 0x25A27, size: 0x8, addend: 0x0, symName: __ZNSt3__116__non_trivial_ifILb1ENS_9allocatorIcEEEC2B8ue170006Ev, symObjAddr: 0xF08, symBinAddr: 0x100002AF4, symSize: 0x14 }
  - { offsetInCU: 0x25A51, offset: 0x25A51, size: 0x8, addend: 0x0, symName: __ZN6CenoteC2Ev, symObjAddr: 0xF4C, symBinAddr: 0x100002B38, symSize: 0x60 }
  - { offsetInCU: 0x25A7B, offset: 0x25A7B, size: 0x8, addend: 0x0, symName: __ZNSt3__16vectorI4LineNS_9allocatorIS1_EEEC1B8ue170006Ev, symObjAddr: 0xFAC, symBinAddr: 0x100002B98, symSize: 0x2C }
  - { offsetInCU: 0x25AA5, offset: 0x25AA5, size: 0x8, addend: 0x0, symName: __ZN7HashMapC1Ev, symObjAddr: 0xFD8, symBinAddr: 0x100002BC4, symSize: 0x2C }
  - { offsetInCU: 0x25ACF, offset: 0x25ACF, size: 0x8, addend: 0x0, symName: __ZNSt3__16vectorI4LineNS_9allocatorIS1_EEED1B8ue170006Ev, symObjAddr: 0x1004, symBinAddr: 0x100002BF0, symSize: 0x2C }
  - { offsetInCU: 0x25AF9, offset: 0x25AF9, size: 0x8, addend: 0x0, symName: __ZNSt3__16vectorI4LineNS_9allocatorIS1_EEEC2B8ue170006Ev, symObjAddr: 0x1030, symBinAddr: 0x100002C1C, symSize: 0x4C }
  - { offsetInCU: 0x25B29, offset: 0x25B29, size: 0x8, addend: 0x0, symName: __ZNSt3__117__compressed_pairIP4LineNS_9allocatorIS1_EEEC1B8ue170006IDnNS_18__default_init_tagEEEOT_OT0_, symObjAddr: 0x107C, symBinAddr: 0x100002C68, symSize: 0x3C }
  - { offsetInCU: 0x25B81, offset: 0x25B81, size: 0x8, addend: 0x0, symName: __ZNSt3__117__compressed_pairIP4LineNS_9allocatorIS1_EEEC2B8ue170006IDnNS_18__default_init_tagEEEOT_OT0_, symObjAddr: 0x10B8, symBinAddr: 0x100002CA4, symSize: 0x40 }
  - { offsetInCU: 0x25BD9, offset: 0x25BD9, size: 0x8, addend: 0x0, symName: __ZNSt3__122__compressed_pair_elemIP4LineLi0ELb0EEC2B8ue170006IDnvEEOT_, symObjAddr: 0x10F8, symBinAddr: 0x100002CE4, symSize: 0x1C }
  - { offsetInCU: 0x25C1B, offset: 0x25C1B, size: 0x8, addend: 0x0, symName: __ZNSt3__122__compressed_pair_elemINS_9allocatorI4LineEELi1ELb1EEC2B8ue170006ENS_18__default_init_tagE, symObjAddr: 0x1114, symBinAddr: 0x100002D00, symSize: 0x2C }
  - { offsetInCU: 0x25C4F, offset: 0x25C4F, size: 0x8, addend: 0x0, symName: __ZNSt3__19allocatorI4LineEC2B8ue170006Ev, symObjAddr: 0x1140, symBinAddr: 0x100002D2C, symSize: 0x2C }
  - { offsetInCU: 0x25C79, offset: 0x25C79, size: 0x8, addend: 0x0, symName: __ZNSt3__116__non_trivial_ifILb1ENS_9allocatorI4LineEEEC2B8ue170006Ev, symObjAddr: 0x116C, symBinAddr: 0x100002D58, symSize: 0x14 }
  - { offsetInCU: 0x25CA3, offset: 0x25CA3, size: 0x8, addend: 0x0, symName: __ZN7HashMapC2Ev, symObjAddr: 0x1180, symBinAddr: 0x100002D6C, symSize: 0x6C }
  - { offsetInCU: 0x25CCD, offset: 0x25CCD, size: 0x8, addend: 0x0, symName: __ZNSt3__16vectorINS0_I4NodeNS_9allocatorIS1_EEEENS2_IS4_EEEC1B8ue170006Ev, symObjAddr: 0x11EC, symBinAddr: 0x100002DD8, symSize: 0x2C }
  - { offsetInCU: 0x25CF7, offset: 0x25CF7, size: 0x8, addend: 0x0, symName: __ZNSt3__16vectorINS0_I4NodeNS_9allocatorIS1_EEEENS2_IS4_EEE6resizeEm, symObjAddr: 0x1218, symBinAddr: 0x100002E04, symSize: 0x9C }
  - { offsetInCU: 0x25D3D, offset: 0x25D3D, size: 0x8, addend: 0x0, symName: __ZNSt3__16vectorINS0_I4NodeNS_9allocatorIS1_EEEENS2_IS4_EEED1B8ue170006Ev, symObjAddr: 0x12B4, symBinAddr: 0x100002EA0, symSize: 0x2C }
  - { offsetInCU: 0x25D67, offset: 0x25D67, size: 0x8, addend: 0x0, symName: __ZNSt3__16vectorINS0_I4NodeNS_9allocatorIS1_EEEENS2_IS4_EEEC2B8ue170006Ev, symObjAddr: 0x12E0, symBinAddr: 0x100002ECC, symSize: 0x4C }
  - { offsetInCU: 0x25D91, offset: 0x25D91, size: 0x8, addend: 0x0, symName: __ZNSt3__117__compressed_pairIPNS_6vectorI4NodeNS_9allocatorIS2_EEEENS3_IS5_EEEC1B8ue170006IDnNS_18__default_init_tagEEEOT_OT0_, symObjAddr: 0x132C, symBinAddr: 0x100002F18, symSize: 0x3C }
  - { offsetInCU: 0x25DE9, offset: 0x25DE9, size: 0x8, addend: 0x0, symName: __ZNSt3__117__compressed_pairIPNS_6vectorI4NodeNS_9allocatorIS2_EEEENS3_IS5_EEEC2B8ue170006IDnNS_18__default_init_tagEEEOT_OT0_, symObjAddr: 0x1368, symBinAddr: 0x100002F54, symSize: 0x40 }
  - { offsetInCU: 0x25E41, offset: 0x25E41, size: 0x8, addend: 0x0, symName: __ZNSt3__122__compressed_pair_elemIPNS_6vectorI4NodeNS_9allocatorIS2_EEEELi0ELb0EEC2B8ue170006IDnvEEOT_, symObjAddr: 0x13A8, symBinAddr: 0x100002F94, symSize: 0x1C }
  - { offsetInCU: 0x25E83, offset: 0x25E83, size: 0x8, addend: 0x0, symName: __ZNSt3__122__compressed_pair_elemINS_9allocatorINS_6vectorI4NodeNS1_IS3_EEEEEELi1ELb1EEC2B8ue170006ENS_18__default_init_tagE, symObjAddr: 0x13C4, symBinAddr: 0x100002FB0, symSize: 0x2C }
  - { offsetInCU: 0x25EB7, offset: 0x25EB7, size: 0x8, addend: 0x0, symName: __ZNSt3__19allocatorINS_6vectorI4NodeNS0_IS2_EEEEEC2B8ue170006Ev, symObjAddr: 0x13F0, symBinAddr: 0x100002FDC, symSize: 0x2C }
  - { offsetInCU: 0x25EE1, offset: 0x25EE1, size: 0x8, addend: 0x0, symName: __ZNSt3__116__non_trivial_ifILb1ENS_9allocatorINS_6vectorI4NodeNS1_IS3_EEEEEEEC2B8ue170006Ev, symObjAddr: 0x141C, symBinAddr: 0x100003008, symSize: 0x14 }
  - { offsetInCU: 0x25F0B, offset: 0x25F0B, size: 0x8, addend: 0x0, symName: __ZNKSt3__16vectorINS0_I4NodeNS_9allocatorIS1_EEEENS2_IS4_EEE4sizeB8ue170006Ev, symObjAddr: 0x1430, symBinAddr: 0x10000301C, symSize: 0x28 }
  - { offsetInCU: 0x25F31, offset: 0x25F31, size: 0x8, addend: 0x0, symName: __ZNSt3__16vectorINS0_I4NodeNS_9allocatorIS1_EEEENS2_IS4_EEE8__appendEm, symObjAddr: 0x1458, symBinAddr: 0x100003044, symSize: 0x108 }
  - { offsetInCU: 0x25F8C, offset: 0x25F8C, size: 0x8, addend: 0x0, symName: __ZNSt3__16vectorINS0_I4NodeNS_9allocatorIS1_EEEENS2_IS4_EEE17__destruct_at_endB8ue170006EPS4_, symObjAddr: 0x1560, symBinAddr: 0x10000314C, symSize: 0x4C }
  - { offsetInCU: 0x25FD0, offset: 0x25FD0, size: 0x8, addend: 0x0, symName: __ZNSt3__16vectorINS0_I4NodeNS_9allocatorIS1_EEEENS2_IS4_EEE9__end_capB8ue170006Ev, symObjAddr: 0x15AC, symBinAddr: 0x100003198, symSize: 0x28 }
  - { offsetInCU: 0x25FF6, offset: 0x25FF6, size: 0x8, addend: 0x0, symName: __ZNSt3__16vectorINS0_I4NodeNS_9allocatorIS1_EEEENS2_IS4_EEE18__construct_at_endEm, symObjAddr: 0x15D4, symBinAddr: 0x1000031C0, symSize: 0xC8 }
  - { offsetInCU: 0x26068, offset: 0x26068, size: 0x8, addend: 0x0, symName: __ZNSt3__16vectorINS0_I4NodeNS_9allocatorIS1_EEEENS2_IS4_EEE7__allocB8ue170006Ev, symObjAddr: 0x169C, symBinAddr: 0x100003288, symSize: 0x28 }
  - { offsetInCU: 0x2608E, offset: 0x2608E, size: 0x8, addend: 0x0, symName: __ZNKSt3__16vectorINS0_I4NodeNS_9allocatorIS1_EEEENS2_IS4_EEE11__recommendB8ue170006Em, symObjAddr: 0x16C4, symBinAddr: 0x1000032B0, symSize: 0xB4 }
  - { offsetInCU: 0x260E3, offset: 0x260E3, size: 0x8, addend: 0x0, symName: __ZNSt3__114__split_bufferINS_6vectorI4NodeNS_9allocatorIS2_EEEERNS3_IS5_EEEC1EmmS7_, symObjAddr: 0x1778, symBinAddr: 0x100003364, symSize: 0x44 }
  - { offsetInCU: 0x26139, offset: 0x26139, size: 0x8, addend: 0x0, symName: __ZNSt3__114__split_bufferINS_6vectorI4NodeNS_9allocatorIS2_EEEERNS3_IS5_EEE18__construct_at_endEm, symObjAddr: 0x17BC, symBinAddr: 0x1000033A8, symSize: 0xB4 }
  - { offsetInCU: 0x2617E, offset: 0x2617E, size: 0x8, addend: 0x0, symName: __ZNSt3__114__split_bufferINS_6vectorI4NodeNS_9allocatorIS2_EEEERNS3_IS5_EEED1Ev, symObjAddr: 0x1980, symBinAddr: 0x10000356C, symSize: 0x2C }
  - { offsetInCU: 0x261AA, offset: 0x261AA, size: 0x8, addend: 0x0, symName: __ZNSt3__117__compressed_pairIPNS_6vectorI4NodeNS_9allocatorIS2_EEEENS3_IS5_EEE5firstB8ue170006Ev, symObjAddr: 0x19AC, symBinAddr: 0x100003598, symSize: 0x24 }
  - { offsetInCU: 0x261D0, offset: 0x261D0, size: 0x8, addend: 0x0, symName: __ZNSt3__122__compressed_pair_elemIPNS_6vectorI4NodeNS_9allocatorIS2_EEEELi0ELb0EE5__getB8ue170006Ev, symObjAddr: 0x19D0, symBinAddr: 0x1000035BC, symSize: 0x14 }
  - { offsetInCU: 0x26212, offset: 0x26212, size: 0x8, addend: 0x0, symName: __ZNSt3__16vectorINS0_I4NodeNS_9allocatorIS1_EEEENS2_IS4_EEE21_ConstructTransactionC1B8ue170006ERS6_m, symObjAddr: 0x19E4, symBinAddr: 0x1000035D0, symSize: 0x3C }
  - { offsetInCU: 0x2625A, offset: 0x2625A, size: 0x8, addend: 0x0, symName: __ZNSt3__116allocator_traitsINS_9allocatorINS_6vectorI4NodeNS1_IS3_EEEEEEE9constructB8ue170006IS5_JEvvEEvRS6_PT_DpOT0_, symObjAddr: 0x1A20, symBinAddr: 0x10000360C, symSize: 0x28 }
  - { offsetInCU: 0x2629A, offset: 0x2629A, size: 0x8, addend: 0x0, symName: __ZNSt3__16vectorINS0_I4NodeNS_9allocatorIS1_EEEENS2_IS4_EEE21_ConstructTransactionD1B8ue170006Ev, symObjAddr: 0x1A5C, symBinAddr: 0x100003648, symSize: 0x2C }
  - { offsetInCU: 0x262C4, offset: 0x262C4, size: 0x8, addend: 0x0, symName: __ZNSt3__16vectorINS0_I4NodeNS_9allocatorIS1_EEEENS2_IS4_EEE21_ConstructTransactionC2B8ue170006ERS6_m, symObjAddr: 0x1A88, symBinAddr: 0x100003674, symSize: 0x4C }
  - { offsetInCU: 0x2630C, offset: 0x2630C, size: 0x8, addend: 0x0, symName: __ZNSt3__16vectorI4NodeNS_9allocatorIS1_EEEC1B8ue170006Ev, symObjAddr: 0x1B08, symBinAddr: 0x1000036F4, symSize: 0x2C }
  - { offsetInCU: 0x26336, offset: 0x26336, size: 0x8, addend: 0x0, symName: __ZNSt3__16vectorI4NodeNS_9allocatorIS1_EEEC2B8ue170006Ev, symObjAddr: 0x1B34, symBinAddr: 0x100003720, symSize: 0x4C }
  - { offsetInCU: 0x26360, offset: 0x26360, size: 0x8, addend: 0x0, symName: __ZNSt3__117__compressed_pairIP4NodeNS_9allocatorIS1_EEEC1B8ue170006IDnNS_18__default_init_tagEEEOT_OT0_, symObjAddr: 0x1B80, symBinAddr: 0x10000376C, symSize: 0x3C }
  - { offsetInCU: 0x263B8, offset: 0x263B8, size: 0x8, addend: 0x0, symName: __ZNSt3__117__compressed_pairIP4NodeNS_9allocatorIS1_EEEC2B8ue170006IDnNS_18__default_init_tagEEEOT_OT0_, symObjAddr: 0x1BBC, symBinAddr: 0x1000037A8, symSize: 0x40 }
  - { offsetInCU: 0x26410, offset: 0x26410, size: 0x8, addend: 0x0, symName: __ZNSt3__122__compressed_pair_elemIP4NodeLi0ELb0EEC2B8ue170006IDnvEEOT_, symObjAddr: 0x1BFC, symBinAddr: 0x1000037E8, symSize: 0x1C }
  - { offsetInCU: 0x26452, offset: 0x26452, size: 0x8, addend: 0x0, symName: __ZNSt3__122__compressed_pair_elemINS_9allocatorI4NodeEELi1ELb1EEC2B8ue170006ENS_18__default_init_tagE, symObjAddr: 0x1C18, symBinAddr: 0x100003804, symSize: 0x2C }
  - { offsetInCU: 0x26486, offset: 0x26486, size: 0x8, addend: 0x0, symName: __ZNSt3__19allocatorI4NodeEC2B8ue170006Ev, symObjAddr: 0x1C44, symBinAddr: 0x100003830, symSize: 0x2C }
  - { offsetInCU: 0x264B0, offset: 0x264B0, size: 0x8, addend: 0x0, symName: __ZNSt3__116__non_trivial_ifILb1ENS_9allocatorI4NodeEEEC2B8ue170006Ev, symObjAddr: 0x1C70, symBinAddr: 0x10000385C, symSize: 0x14 }
  - { offsetInCU: 0x264DA, offset: 0x264DA, size: 0x8, addend: 0x0, symName: __ZNSt3__16vectorINS0_I4NodeNS_9allocatorIS1_EEEENS2_IS4_EEE21_ConstructTransactionD2B8ue170006Ev, symObjAddr: 0x1C84, symBinAddr: 0x100003870, symSize: 0x20 }
  - { offsetInCU: 0x26504, offset: 0x26504, size: 0x8, addend: 0x0, symName: __ZNSt3__117__compressed_pairIPNS_6vectorI4NodeNS_9allocatorIS2_EEEENS3_IS5_EEE6secondB8ue170006Ev, symObjAddr: 0x1CA4, symBinAddr: 0x100003890, symSize: 0x24 }
  - { offsetInCU: 0x2652A, offset: 0x2652A, size: 0x8, addend: 0x0, symName: __ZNSt3__122__compressed_pair_elemINS_9allocatorINS_6vectorI4NodeNS1_IS3_EEEEEELi1ELb1EE5__getB8ue170006Ev, symObjAddr: 0x1CC8, symBinAddr: 0x1000038B4, symSize: 0x14 }
  - { offsetInCU: 0x26550, offset: 0x26550, size: 0x8, addend: 0x0, symName: __ZNKSt3__16vectorINS0_I4NodeNS_9allocatorIS1_EEEENS2_IS4_EEE8max_sizeEv, symObjAddr: 0x1CDC, symBinAddr: 0x1000038C8, symSize: 0x60 }
  - { offsetInCU: 0x26578, offset: 0x26578, size: 0x8, addend: 0x0, symName: __ZNKSt3__16vectorINS0_I4NodeNS_9allocatorIS1_EEEENS2_IS4_EEE20__throw_length_errorB8ue170006Ev, symObjAddr: 0x1D3C, symBinAddr: 0x100003928, symSize: 0x1C }
  - { offsetInCU: 0x2659E, offset: 0x2659E, size: 0x8, addend: 0x0, symName: __ZNKSt3__16vectorINS0_I4NodeNS_9allocatorIS1_EEEENS2_IS4_EEE8capacityB8ue170006Ev, symObjAddr: 0x1D58, symBinAddr: 0x100003944, symSize: 0x40 }
  - { offsetInCU: 0x265CF, offset: 0x265CF, size: 0x8, addend: 0x0, symName: __ZNSt3__116allocator_traitsINS_9allocatorINS_6vectorI4NodeNS1_IS3_EEEEEEE8max_sizeB8ue170006IS6_vvEEmRKS6_, symObjAddr: 0x1DF0, symBinAddr: 0x1000039DC, symSize: 0x28 }
  - { offsetInCU: 0x265FB, offset: 0x265FB, size: 0x8, addend: 0x0, symName: __ZNKSt3__16vectorINS0_I4NodeNS_9allocatorIS1_EEEENS2_IS4_EEE7__allocB8ue170006Ev, symObjAddr: 0x1E18, symBinAddr: 0x100003A04, symSize: 0x28 }
  - { offsetInCU: 0x26621, offset: 0x26621, size: 0x8, addend: 0x0, symName: __ZNSt3__114numeric_limitsIlE3maxB8ue170006Ev, symObjAddr: 0x1E40, symBinAddr: 0x100003A2C, symSize: 0x14 }
  - { offsetInCU: 0x2664B, offset: 0x2664B, size: 0x8, addend: 0x0, symName: __ZNKSt3__16__lessIvvEclB8ue170006ImmEEbRKT_RKT0_, symObjAddr: 0x1EA8, symBinAddr: 0x100003A94, symSize: 0x34 }
  - { offsetInCU: 0x2669F, offset: 0x2669F, size: 0x8, addend: 0x0, symName: __ZNSt3__114numeric_limitsImE3maxB8ue170006Ev, symObjAddr: 0x1EDC, symBinAddr: 0x100003AC8, symSize: 0x14 }
  - { offsetInCU: 0x266B3, offset: 0x266B3, size: 0x8, addend: 0x0, symName: __ZNSt3__123__libcpp_numeric_limitsImLb1EE3maxB8ue170006Ev, symObjAddr: 0x1EF0, symBinAddr: 0x100003ADC, symSize: 0x8 }
  - { offsetInCU: 0x266C7, offset: 0x266C7, size: 0x8, addend: 0x0, symName: __ZNKSt3__117__compressed_pairIPNS_6vectorI4NodeNS_9allocatorIS2_EEEENS3_IS5_EEE6secondB8ue170006Ev, symObjAddr: 0x1EF8, symBinAddr: 0x100003AE4, symSize: 0x24 }
  - { offsetInCU: 0x266ED, offset: 0x266ED, size: 0x8, addend: 0x0, symName: __ZNKSt3__122__compressed_pair_elemINS_9allocatorINS_6vectorI4NodeNS1_IS3_EEEEEELi1ELb1EE5__getB8ue170006Ev, symObjAddr: 0x1F1C, symBinAddr: 0x100003B08, symSize: 0x14 }
  - { offsetInCU: 0x26713, offset: 0x26713, size: 0x8, addend: 0x0, symName: __ZNSt3__123__libcpp_numeric_limitsIlLb1EE3maxB8ue170006Ev, symObjAddr: 0x1F30, symBinAddr: 0x100003B1C, symSize: 0x8 }
  - { offsetInCU: 0x26727, offset: 0x26727, size: 0x8, addend: 0x0, symName: __ZNSt12length_errorC1B8ue170006EPKc, symObjAddr: 0x1F9C, symBinAddr: 0x100003B88, symSize: 0x34 }
  - { offsetInCU: 0x2675F, offset: 0x2675F, size: 0x8, addend: 0x0, symName: __ZNSt12length_errorC2B8ue170006EPKc, symObjAddr: 0x1FD0, symBinAddr: 0x100003BBC, symSize: 0x4C }
  - { offsetInCU: 0x26797, offset: 0x26797, size: 0x8, addend: 0x0, symName: __ZNKSt3__16vectorINS0_I4NodeNS_9allocatorIS1_EEEENS2_IS4_EEE9__end_capB8ue170006Ev, symObjAddr: 0x201C, symBinAddr: 0x100003C08, symSize: 0x28 }
  - { offsetInCU: 0x267BD, offset: 0x267BD, size: 0x8, addend: 0x0, symName: __ZNKSt3__117__compressed_pairIPNS_6vectorI4NodeNS_9allocatorIS2_EEEENS3_IS5_EEE5firstB8ue170006Ev, symObjAddr: 0x2044, symBinAddr: 0x100003C30, symSize: 0x24 }
  - { offsetInCU: 0x267E3, offset: 0x267E3, size: 0x8, addend: 0x0, symName: __ZNKSt3__122__compressed_pair_elemIPNS_6vectorI4NodeNS_9allocatorIS2_EEEELi0ELb0EE5__getB8ue170006Ev, symObjAddr: 0x2068, symBinAddr: 0x100003C54, symSize: 0x14 }
  - { offsetInCU: 0x26809, offset: 0x26809, size: 0x8, addend: 0x0, symName: __ZNSt3__114__split_bufferINS_6vectorI4NodeNS_9allocatorIS2_EEEERNS3_IS5_EEEC2EmmS7_, symObjAddr: 0x20D0, symBinAddr: 0x100003CBC, symSize: 0xE0 }
  - { offsetInCU: 0x2687C, offset: 0x2687C, size: 0x8, addend: 0x0, symName: __ZNSt3__117__compressed_pairIPNS_6vectorI4NodeNS_9allocatorIS2_EEEERNS3_IS5_EEEC1B8ue170006IDnS8_EEOT_OT0_, symObjAddr: 0x21B0, symBinAddr: 0x100003D9C, symSize: 0x3C }
  - { offsetInCU: 0x268D4, offset: 0x268D4, size: 0x8, addend: 0x0, symName: __ZNSt3__114__split_bufferINS_6vectorI4NodeNS_9allocatorIS2_EEEERNS3_IS5_EEE7__allocB8ue170006Ev, symObjAddr: 0x2228, symBinAddr: 0x100003E14, symSize: 0x28 }
  - { offsetInCU: 0x268FA, offset: 0x268FA, size: 0x8, addend: 0x0, symName: __ZNSt3__114__split_bufferINS_6vectorI4NodeNS_9allocatorIS2_EEEERNS3_IS5_EEE9__end_capB8ue170006Ev, symObjAddr: 0x2250, symBinAddr: 0x100003E3C, symSize: 0x28 }
  - { offsetInCU: 0x26920, offset: 0x26920, size: 0x8, addend: 0x0, symName: __ZNSt3__117__compressed_pairIPNS_6vectorI4NodeNS_9allocatorIS2_EEEERNS3_IS5_EEEC2B8ue170006IDnS8_EEOT_OT0_, symObjAddr: 0x2278, symBinAddr: 0x100003E64, symSize: 0x48 }
  - { offsetInCU: 0x26978, offset: 0x26978, size: 0x8, addend: 0x0, symName: __ZNSt3__122__compressed_pair_elemIRNS_9allocatorINS_6vectorI4NodeNS1_IS3_EEEEEELi1ELb0EEC2B8ue170006IS7_vEEOT_, symObjAddr: 0x22C0, symBinAddr: 0x100003EAC, symSize: 0x20 }
  - { offsetInCU: 0x269BA, offset: 0x269BA, size: 0x8, addend: 0x0, symName: __ZNSt3__19allocatorINS_6vectorI4NodeNS0_IS2_EEEEE17allocate_at_leastB8ue170006Em, symObjAddr: 0x231C, symBinAddr: 0x100003F08, symSize: 0x40 }
  - { offsetInCU: 0x269EE, offset: 0x269EE, size: 0x8, addend: 0x0, symName: __ZNSt3__19allocatorINS_6vectorI4NodeNS0_IS2_EEEEE8allocateB8ue170006Em, symObjAddr: 0x235C, symBinAddr: 0x100003F48, symSize: 0x5C }
  - { offsetInCU: 0x26A22, offset: 0x26A22, size: 0x8, addend: 0x0, symName: __ZNSt3__117__compressed_pairIPNS_6vectorI4NodeNS_9allocatorIS2_EEEERNS3_IS5_EEE6secondB8ue170006Ev, symObjAddr: 0x24BC, symBinAddr: 0x1000040A8, symSize: 0x28 }
  - { offsetInCU: 0x26A48, offset: 0x26A48, size: 0x8, addend: 0x0, symName: __ZNSt3__122__compressed_pair_elemIRNS_9allocatorINS_6vectorI4NodeNS1_IS3_EEEEEELi1ELb0EE5__getB8ue170006Ev, symObjAddr: 0x24E4, symBinAddr: 0x1000040D0, symSize: 0x18 }
  - { offsetInCU: 0x26A6E, offset: 0x26A6E, size: 0x8, addend: 0x0, symName: __ZNSt3__117__compressed_pairIPNS_6vectorI4NodeNS_9allocatorIS2_EEEERNS3_IS5_EEE5firstB8ue170006Ev, symObjAddr: 0x24FC, symBinAddr: 0x1000040E8, symSize: 0x24 }
  - { offsetInCU: 0x26AA0, offset: 0x26AA0, size: 0x8, addend: 0x0, symName: __ZNSt3__114__split_bufferINS_6vectorI4NodeNS_9allocatorIS2_EEEERNS3_IS5_EEE21_ConstructTransactionC1B8ue170006EPPS5_m, symObjAddr: 0x2520, symBinAddr: 0x10000410C, symSize: 0x3C }
  - { offsetInCU: 0x26AE6, offset: 0x26AE6, size: 0x8, addend: 0x0, symName: __ZNSt3__114__split_bufferINS_6vectorI4NodeNS_9allocatorIS2_EEEERNS3_IS5_EEE21_ConstructTransactionD1B8ue170006Ev, symObjAddr: 0x255C, symBinAddr: 0x100004148, symSize: 0x2C }
  - { offsetInCU: 0x26B10, offset: 0x26B10, size: 0x8, addend: 0x0, symName: __ZNSt3__114__split_bufferINS_6vectorI4NodeNS_9allocatorIS2_EEEERNS3_IS5_EEE21_ConstructTransactionC2B8ue170006EPPS5_m, symObjAddr: 0x2588, symBinAddr: 0x100004174, symSize: 0x4C }
  - { offsetInCU: 0x26B56, offset: 0x26B56, size: 0x8, addend: 0x0, symName: __ZNSt3__114__split_bufferINS_6vectorI4NodeNS_9allocatorIS2_EEEERNS3_IS5_EEE21_ConstructTransactionD2B8ue170006Ev, symObjAddr: 0x25D4, symBinAddr: 0x1000041C0, symSize: 0x20 }
  - { offsetInCU: 0x26B80, offset: 0x26B80, size: 0x8, addend: 0x0, symName: __ZNKSt3__16vectorINS0_I4NodeNS_9allocatorIS1_EEEENS2_IS4_EEE17__annotate_deleteB8ue170006Ev, symObjAddr: 0x25F4, symBinAddr: 0x1000041E0, symSize: 0xD4 }
  - { offsetInCU: 0x26BA6, offset: 0x26BA6, size: 0x8, addend: 0x0, symName: __ZNSt3__116reverse_iteratorIPNS_6vectorI4NodeNS_9allocatorIS2_EEEEEC1B8ue170006ES6_, symObjAddr: 0x27F4, symBinAddr: 0x1000043E0, symSize: 0x34 }
  - { offsetInCU: 0x26BDE, offset: 0x26BDE, size: 0x8, addend: 0x0, symName: __ZNKSt3__116reverse_iteratorIPNS_6vectorI4NodeNS_9allocatorIS2_EEEEE4baseB8ue170006Ev, symObjAddr: 0x2828, symBinAddr: 0x100004414, symSize: 0x18 }
  - { offsetInCU: 0x26C04, offset: 0x26C04, size: 0x8, addend: 0x0, symName: __ZNKSt3__16vectorINS0_I4NodeNS_9allocatorIS1_EEEENS2_IS4_EEE14__annotate_newB8ue170006Em, symObjAddr: 0x287C, symBinAddr: 0x100004468, symSize: 0xC8 }
  - { offsetInCU: 0x26C39, offset: 0x26C39, size: 0x8, addend: 0x0, symName: __ZNKSt3__16vectorINS0_I4NodeNS_9allocatorIS1_EEEENS2_IS4_EEE31__annotate_contiguous_containerB8ue170006EPKvS8_S8_S8_, symObjAddr: 0x2944, symBinAddr: 0x100004530, symSize: 0x20 }
  - { offsetInCU: 0x26C8F, offset: 0x26C8F, size: 0x8, addend: 0x0, symName: __ZNKSt3__16vectorINS0_I4NodeNS_9allocatorIS1_EEEENS2_IS4_EEE4dataB8ue170006Ev, symObjAddr: 0x2964, symBinAddr: 0x100004550, symSize: 0x28 }
  - { offsetInCU: 0x26CB5, offset: 0x26CB5, size: 0x8, addend: 0x0, symName: __ZNSt3__129_AllocatorDestroyRangeReverseINS_9allocatorINS_6vectorI4NodeNS1_IS3_EEEEEENS_16reverse_iteratorIPS5_EEEC1B8ue170006ERS6_RS9_SC_, symObjAddr: 0x29D8, symBinAddr: 0x1000045C4, symSize: 0x44 }
  - { offsetInCU: 0x26D0C, offset: 0x26D0C, size: 0x8, addend: 0x0, symName: __ZNSt3__116allocator_traitsINS_9allocatorINS_6vectorI4NodeNS1_IS3_EEEEEEE9constructB8ue170006IS5_JS5_EvvEEvRS6_PT_DpOT0_, symObjAddr: 0x2A64, symBinAddr: 0x100004650, symSize: 0x30 }
  - { offsetInCU: 0x26D61, offset: 0x26D61, size: 0x8, addend: 0x0, symName: __ZNKSt3__116reverse_iteratorIPNS_6vectorI4NodeNS_9allocatorIS2_EEEEEdeB8ue170006Ev, symObjAddr: 0x2AB8, symBinAddr: 0x1000046A4, symSize: 0x28 }
  - { offsetInCU: 0x26D95, offset: 0x26D95, size: 0x8, addend: 0x0, symName: __ZNSt3__116reverse_iteratorIPNS_6vectorI4NodeNS_9allocatorIS2_EEEEEppB8ue170006Ev, symObjAddr: 0x2AE0, symBinAddr: 0x1000046CC, symSize: 0x20 }
  - { offsetInCU: 0x26DBB, offset: 0x26DBB, size: 0x8, addend: 0x0, symName: __ZNSt3__128__exception_guard_exceptionsINS_29_AllocatorDestroyRangeReverseINS_9allocatorINS_6vectorI4NodeNS2_IS4_EEEEEENS_16reverse_iteratorIPS6_EEEEE10__completeB8ue170006Ev, symObjAddr: 0x2B00, symBinAddr: 0x1000046EC, symSize: 0x1C }
  - { offsetInCU: 0x26DE1, offset: 0x26DE1, size: 0x8, addend: 0x0, symName: __ZNSt3__128__exception_guard_exceptionsINS_29_AllocatorDestroyRangeReverseINS_9allocatorINS_6vectorI4NodeNS2_IS4_EEEEEENS_16reverse_iteratorIPS6_EEEEED1B8ue170006Ev, symObjAddr: 0x2B1C, symBinAddr: 0x100004708, symSize: 0x2C }
  - { offsetInCU: 0x26E0B, offset: 0x26E0B, size: 0x8, addend: 0x0, symName: __ZNSt3__128__exception_guard_exceptionsINS_29_AllocatorDestroyRangeReverseINS_9allocatorINS_6vectorI4NodeNS2_IS4_EEEEEENS_16reverse_iteratorIPS6_EEEEEC1B8ue170006ESB_, symObjAddr: 0x2B48, symBinAddr: 0x100004734, symSize: 0x34 }
  - { offsetInCU: 0x26E44, offset: 0x26E44, size: 0x8, addend: 0x0, symName: __ZNSt3__128__exception_guard_exceptionsINS_29_AllocatorDestroyRangeReverseINS_9allocatorINS_6vectorI4NodeNS2_IS4_EEEEEENS_16reverse_iteratorIPS6_EEEEEC2B8ue170006ESB_, symObjAddr: 0x2B7C, symBinAddr: 0x100004768, symSize: 0x30 }
  - { offsetInCU: 0x26E7D, offset: 0x26E7D, size: 0x8, addend: 0x0, symName: __ZNSt3__129_AllocatorDestroyRangeReverseINS_9allocatorINS_6vectorI4NodeNS1_IS3_EEEEEENS_16reverse_iteratorIPS5_EEEC2B8ue170006ERS6_RS9_SC_, symObjAddr: 0x2BAC, symBinAddr: 0x100004798, symSize: 0x38 }
  - { offsetInCU: 0x26ED4, offset: 0x26ED4, size: 0x8, addend: 0x0, symName: __ZNSt3__16vectorI4NodeNS_9allocatorIS1_EEEC1B8ue170006EOS4_, symObjAddr: 0x2C20, symBinAddr: 0x10000480C, symSize: 0x34 }
  - { offsetInCU: 0x26F0F, offset: 0x26F0F, size: 0x8, addend: 0x0, symName: __ZNSt3__16vectorI4NodeNS_9allocatorIS1_EEEC2B8ue170006EOS4_, symObjAddr: 0x2C54, symBinAddr: 0x100004840, symSize: 0xC4 }
  - { offsetInCU: 0x26F4A, offset: 0x26F4A, size: 0x8, addend: 0x0, symName: __ZNSt3__16vectorI4NodeNS_9allocatorIS1_EEE7__allocB8ue170006Ev, symObjAddr: 0x2D18, symBinAddr: 0x100004904, symSize: 0x28 }
  - { offsetInCU: 0x26F76, offset: 0x26F76, size: 0x8, addend: 0x0, symName: __ZNSt3__117__compressed_pairIP4NodeNS_9allocatorIS1_EEEC1B8ue170006IDnS4_EEOT_OT0_, symObjAddr: 0x2D40, symBinAddr: 0x10000492C, symSize: 0x3C }
  - { offsetInCU: 0x26FCE, offset: 0x26FCE, size: 0x8, addend: 0x0, symName: __ZNSt3__16vectorI4NodeNS_9allocatorIS1_EEE9__end_capB8ue170006Ev, symObjAddr: 0x2D7C, symBinAddr: 0x100004968, symSize: 0x28 }
  - { offsetInCU: 0x26FF4, offset: 0x26FF4, size: 0x8, addend: 0x0, symName: __ZNSt3__117__compressed_pairIP4NodeNS_9allocatorIS1_EEE6secondB8ue170006Ev, symObjAddr: 0x2DA4, symBinAddr: 0x100004990, symSize: 0x24 }
  - { offsetInCU: 0x2701A, offset: 0x2701A, size: 0x8, addend: 0x0, symName: __ZNSt3__122__compressed_pair_elemINS_9allocatorI4NodeEELi1ELb1EE5__getB8ue170006Ev, symObjAddr: 0x2DC8, symBinAddr: 0x1000049B4, symSize: 0x14 }
  - { offsetInCU: 0x27040, offset: 0x27040, size: 0x8, addend: 0x0, symName: __ZNSt3__117__compressed_pairIP4NodeNS_9allocatorIS1_EEEC2B8ue170006IDnS4_EEOT_OT0_, symObjAddr: 0x2DDC, symBinAddr: 0x1000049C8, symSize: 0x44 }
  - { offsetInCU: 0x27098, offset: 0x27098, size: 0x8, addend: 0x0, symName: __ZNSt3__122__compressed_pair_elemINS_9allocatorI4NodeEELi1ELb1EEC2B8ue170006IS3_vEEOT_, symObjAddr: 0x2E20, symBinAddr: 0x100004A0C, symSize: 0x18 }
  - { offsetInCU: 0x270DA, offset: 0x270DA, size: 0x8, addend: 0x0, symName: __ZNSt3__117__compressed_pairIP4NodeNS_9allocatorIS1_EEE5firstB8ue170006Ev, symObjAddr: 0x2E38, symBinAddr: 0x100004A24, symSize: 0x24 }
  - { offsetInCU: 0x27100, offset: 0x27100, size: 0x8, addend: 0x0, symName: __ZNSt3__122__compressed_pair_elemIP4NodeLi0ELb0EE5__getB8ue170006Ev, symObjAddr: 0x2E5C, symBinAddr: 0x100004A48, symSize: 0x14 }
  - { offsetInCU: 0x2712C, offset: 0x2712C, size: 0x8, addend: 0x0, symName: __ZNSt3__119__to_address_helperINS_16reverse_iteratorIPNS_6vectorI4NodeNS_9allocatorIS3_EEEEEEvE6__callB8ue170006ERKS8_, symObjAddr: 0x2E70, symBinAddr: 0x100004A5C, symSize: 0x38 }
  - { offsetInCU: 0x2714F, offset: 0x2714F, size: 0x8, addend: 0x0, symName: __ZNKSt3__116reverse_iteratorIPNS_6vectorI4NodeNS_9allocatorIS2_EEEEEptB8ue170006Ev, symObjAddr: 0x2EA8, symBinAddr: 0x100004A94, symSize: 0x2C }
  - { offsetInCU: 0x27175, offset: 0x27175, size: 0x8, addend: 0x0, symName: __ZNSt3__128__exception_guard_exceptionsINS_29_AllocatorDestroyRangeReverseINS_9allocatorINS_6vectorI4NodeNS2_IS4_EEEEEENS_16reverse_iteratorIPS6_EEEEED2B8ue170006Ev, symObjAddr: 0x2F8C, symBinAddr: 0x100004B78, symSize: 0x50 }
  - { offsetInCU: 0x2719F, offset: 0x2719F, size: 0x8, addend: 0x0, symName: __ZNKSt3__129_AllocatorDestroyRangeReverseINS_9allocatorINS_6vectorI4NodeNS1_IS3_EEEEEENS_16reverse_iteratorIPS5_EEEclB8ue170006Ev, symObjAddr: 0x2FDC, symBinAddr: 0x100004BC8, symSize: 0xB4 }
  - { offsetInCU: 0x271C6, offset: 0x271C6, size: 0x8, addend: 0x0, symName: __ZNSt3__116reverse_iteratorINS0_IPNS_6vectorI4NodeNS_9allocatorIS2_EEEEEEEC1B8ue170006ES7_, symObjAddr: 0x3100, symBinAddr: 0x100004CEC, symSize: 0x3C }
  - { offsetInCU: 0x271FE, offset: 0x271FE, size: 0x8, addend: 0x0, symName: __ZNSt3__116allocator_traitsINS_9allocatorINS_6vectorI4NodeNS1_IS3_EEEEEEE7destroyB8ue170006IS5_vvEEvRS6_PT_, symObjAddr: 0x319C, symBinAddr: 0x100004D88, symSize: 0x28 }
  - { offsetInCU: 0x27239, offset: 0x27239, size: 0x8, addend: 0x0, symName: __ZNSt3__116reverse_iteratorINS0_IPNS_6vectorI4NodeNS_9allocatorIS2_EEEEEEEppB8ue170006Ev, symObjAddr: 0x31E8, symBinAddr: 0x100004DD4, symSize: 0x30 }
  - { offsetInCU: 0x2725F, offset: 0x2725F, size: 0x8, addend: 0x0, symName: __ZNKSt3__116reverse_iteratorINS0_IPNS_6vectorI4NodeNS_9allocatorIS2_EEEEEEE4baseB8ue170006Ev, symObjAddr: 0x3218, symBinAddr: 0x100004E04, symSize: 0x24 }
  - { offsetInCU: 0x27285, offset: 0x27285, size: 0x8, addend: 0x0, symName: __ZNSt3__16vectorI4NodeNS_9allocatorIS1_EEED1B8ue170006Ev, symObjAddr: 0x3284, symBinAddr: 0x100004E70, symSize: 0x2C }
  - { offsetInCU: 0x272AF, offset: 0x272AF, size: 0x8, addend: 0x0, symName: __ZNSt3__16vectorI4NodeNS_9allocatorIS1_EEED2B8ue170006Ev, symObjAddr: 0x32B0, symBinAddr: 0x100004E9C, symSize: 0x44 }
  - { offsetInCU: 0x272D9, offset: 0x272D9, size: 0x8, addend: 0x0, symName: __ZNSt3__16vectorI4NodeNS_9allocatorIS1_EEE16__destroy_vectorC1B8ue170006ERS4_, symObjAddr: 0x32F4, symBinAddr: 0x100004EE0, symSize: 0x34 }
  - { offsetInCU: 0x27312, offset: 0x27312, size: 0x8, addend: 0x0, symName: __ZNSt3__16vectorI4NodeNS_9allocatorIS1_EEE16__destroy_vectorclB8ue170006Ev, symObjAddr: 0x3328, symBinAddr: 0x100004F14, symSize: 0x90 }
  - { offsetInCU: 0x27338, offset: 0x27338, size: 0x8, addend: 0x0, symName: __ZNSt3__16vectorI4NodeNS_9allocatorIS1_EEE16__destroy_vectorC2B8ue170006ERS4_, symObjAddr: 0x33B8, symBinAddr: 0x100004FA4, symSize: 0x20 }
  - { offsetInCU: 0x27371, offset: 0x27371, size: 0x8, addend: 0x0, symName: __ZNSt3__16vectorI4NodeNS_9allocatorIS1_EEE7__clearB8ue170006Ev, symObjAddr: 0x33D8, symBinAddr: 0x100004FC4, symSize: 0x28 }
  - { offsetInCU: 0x27397, offset: 0x27397, size: 0x8, addend: 0x0, symName: __ZNKSt3__16vectorI4NodeNS_9allocatorIS1_EEE17__annotate_deleteB8ue170006Ev, symObjAddr: 0x3400, symBinAddr: 0x100004FEC, symSize: 0xB8 }
  - { offsetInCU: 0x273BD, offset: 0x273BD, size: 0x8, addend: 0x0, symName: __ZNSt3__116allocator_traitsINS_9allocatorI4NodeEEE10deallocateB8ue170006ERS3_PS2_m, symObjAddr: 0x34B8, symBinAddr: 0x1000050A4, symSize: 0x34 }
  - { offsetInCU: 0x273FF, offset: 0x273FF, size: 0x8, addend: 0x0, symName: __ZNKSt3__16vectorI4NodeNS_9allocatorIS1_EEE8capacityB8ue170006Ev, symObjAddr: 0x34EC, symBinAddr: 0x1000050D8, symSize: 0x40 }
  - { offsetInCU: 0x27425, offset: 0x27425, size: 0x8, addend: 0x0, symName: __ZNSt3__16vectorI4NodeNS_9allocatorIS1_EEE22__base_destruct_at_endB8ue170006EPS1_, symObjAddr: 0x352C, symBinAddr: 0x100005118, symSize: 0x8C }
  - { offsetInCU: 0x27469, offset: 0x27469, size: 0x8, addend: 0x0, symName: __ZNSt3__116allocator_traitsINS_9allocatorI4NodeEEE7destroyB8ue170006IS2_vvEEvRS3_PT_, symObjAddr: 0x35B8, symBinAddr: 0x1000051A4, symSize: 0x28 }
  - { offsetInCU: 0x274A4, offset: 0x274A4, size: 0x8, addend: 0x0, symName: __ZN4NodeD1Ev, symObjAddr: 0x363C, symBinAddr: 0x100005228, symSize: 0x2C }
  - { offsetInCU: 0x274D0, offset: 0x274D0, size: 0x8, addend: 0x0, symName: __ZN4NodeD2Ev, symObjAddr: 0x3668, symBinAddr: 0x100005254, symSize: 0x30 }
  - { offsetInCU: 0x274FC, offset: 0x274FC, size: 0x8, addend: 0x0, symName: __ZNKSt3__16vectorI4NodeNS_9allocatorIS1_EEE31__annotate_contiguous_containerB8ue170006EPKvS6_S6_S6_, symObjAddr: 0x3698, symBinAddr: 0x100005284, symSize: 0x20 }
  - { offsetInCU: 0x27552, offset: 0x27552, size: 0x8, addend: 0x0, symName: __ZNKSt3__16vectorI4NodeNS_9allocatorIS1_EEE4dataB8ue170006Ev, symObjAddr: 0x36B8, symBinAddr: 0x1000052A4, symSize: 0x28 }
  - { offsetInCU: 0x27578, offset: 0x27578, size: 0x8, addend: 0x0, symName: __ZNKSt3__16vectorI4NodeNS_9allocatorIS1_EEE4sizeB8ue170006Ev, symObjAddr: 0x36E0, symBinAddr: 0x1000052CC, symSize: 0x28 }
  - { offsetInCU: 0x2759E, offset: 0x2759E, size: 0x8, addend: 0x0, symName: __ZNSt3__19allocatorI4NodeE10deallocateB8ue170006EPS1_m, symObjAddr: 0x3708, symBinAddr: 0x1000052F4, symSize: 0x40 }
  - { offsetInCU: 0x275E0, offset: 0x275E0, size: 0x8, addend: 0x0, symName: __ZNKSt3__16vectorI4NodeNS_9allocatorIS1_EEE9__end_capB8ue170006Ev, symObjAddr: 0x3850, symBinAddr: 0x10000543C, symSize: 0x28 }
  - { offsetInCU: 0x27606, offset: 0x27606, size: 0x8, addend: 0x0, symName: __ZNKSt3__117__compressed_pairIP4NodeNS_9allocatorIS1_EEE5firstB8ue170006Ev, symObjAddr: 0x3878, symBinAddr: 0x100005464, symSize: 0x24 }
  - { offsetInCU: 0x2762C, offset: 0x2762C, size: 0x8, addend: 0x0, symName: __ZNKSt3__122__compressed_pair_elemIP4NodeLi0ELb0EE5__getB8ue170006Ev, symObjAddr: 0x389C, symBinAddr: 0x100005488, symSize: 0x14 }
  - { offsetInCU: 0x27658, offset: 0x27658, size: 0x8, addend: 0x0, symName: __ZNSt3__119__to_address_helperINS_16reverse_iteratorINS1_IPNS_6vectorI4NodeNS_9allocatorIS3_EEEEEEEEvE6__callB8ue170006ERKS9_, symObjAddr: 0x38B0, symBinAddr: 0x10000549C, symSize: 0x38 }
  - { offsetInCU: 0x2767B, offset: 0x2767B, size: 0x8, addend: 0x0, symName: __ZNKSt3__116reverse_iteratorINS0_IPNS_6vectorI4NodeNS_9allocatorIS2_EEEEEEEptB8ue170006Ev, symObjAddr: 0x38E8, symBinAddr: 0x1000054D4, symSize: 0x4C }
  - { offsetInCU: 0x276A1, offset: 0x276A1, size: 0x8, addend: 0x0, symName: __ZNSt3__116reverse_iteratorIPNS_6vectorI4NodeNS_9allocatorIS2_EEEEEpLB8ue170006El, symObjAddr: 0x39E4, symBinAddr: 0x1000055D0, symSize: 0x30 }
  - { offsetInCU: 0x276D5, offset: 0x276D5, size: 0x8, addend: 0x0, symName: __ZNSt3__116reverse_iteratorIPNS_6vectorI4NodeNS_9allocatorIS2_EEEEEmmB8ue170006Ev, symObjAddr: 0x3A14, symBinAddr: 0x100005600, symSize: 0x20 }
  - { offsetInCU: 0x276FB, offset: 0x276FB, size: 0x8, addend: 0x0, symName: __ZNSt3__116reverse_iteratorINS0_IPNS_6vectorI4NodeNS_9allocatorIS2_EEEEEEEC2B8ue170006ES7_, symObjAddr: 0x3A34, symBinAddr: 0x100005620, symSize: 0x2C }
  - { offsetInCU: 0x27733, offset: 0x27733, size: 0x8, addend: 0x0, symName: __ZNSt3__116reverse_iteratorIPNS_6vectorI4NodeNS_9allocatorIS2_EEEEEC2B8ue170006ES6_, symObjAddr: 0x3A60, symBinAddr: 0x10000564C, symSize: 0x28 }
  - { offsetInCU: 0x2776B, offset: 0x2776B, size: 0x8, addend: 0x0, symName: __ZNSt3__114__split_bufferINS_6vectorI4NodeNS_9allocatorIS2_EEEERNS3_IS5_EEED2Ev, symObjAddr: 0x3A88, symBinAddr: 0x100005674, symSize: 0x8C }
  - { offsetInCU: 0x27797, offset: 0x27797, size: 0x8, addend: 0x0, symName: __ZNSt3__114__split_bufferINS_6vectorI4NodeNS_9allocatorIS2_EEEERNS3_IS5_EEE5clearB8ue170006Ev, symObjAddr: 0x3B14, symBinAddr: 0x100005700, symSize: 0x28 }
  - { offsetInCU: 0x277BD, offset: 0x277BD, size: 0x8, addend: 0x0, symName: __ZNSt3__116allocator_traitsINS_9allocatorINS_6vectorI4NodeNS1_IS3_EEEEEEE10deallocateB8ue170006ERS6_PS5_m, symObjAddr: 0x3B3C, symBinAddr: 0x100005728, symSize: 0x34 }
  - { offsetInCU: 0x277FF, offset: 0x277FF, size: 0x8, addend: 0x0, symName: __ZNKSt3__114__split_bufferINS_6vectorI4NodeNS_9allocatorIS2_EEEERNS3_IS5_EEE8capacityB8ue170006Ev, symObjAddr: 0x3B70, symBinAddr: 0x10000575C, symSize: 0x40 }
  - { offsetInCU: 0x27825, offset: 0x27825, size: 0x8, addend: 0x0, symName: __ZNSt3__114__split_bufferINS_6vectorI4NodeNS_9allocatorIS2_EEEERNS3_IS5_EEE17__destruct_at_endB8ue170006EPS5_, symObjAddr: 0x3BB0, symBinAddr: 0x10000579C, symSize: 0x2C }
  - { offsetInCU: 0x27859, offset: 0x27859, size: 0x8, addend: 0x0, symName: __ZNSt3__114__split_bufferINS_6vectorI4NodeNS_9allocatorIS2_EEEERNS3_IS5_EEE17__destruct_at_endB8ue170006EPS5_NS_17integral_constantIbLb0EEE, symObjAddr: 0x3BDC, symBinAddr: 0x1000057C8, symSize: 0x80 }
  - { offsetInCU: 0x27899, offset: 0x27899, size: 0x8, addend: 0x0, symName: __ZNSt3__19allocatorINS_6vectorI4NodeNS0_IS2_EEEEE10deallocateB8ue170006EPS4_m, symObjAddr: 0x3C5C, symBinAddr: 0x100005848, symSize: 0x44 }
  - { offsetInCU: 0x278DB, offset: 0x278DB, size: 0x8, addend: 0x0, symName: __ZNKSt3__114__split_bufferINS_6vectorI4NodeNS_9allocatorIS2_EEEERNS3_IS5_EEE9__end_capB8ue170006Ev, symObjAddr: 0x3CA0, symBinAddr: 0x10000588C, symSize: 0x28 }
  - { offsetInCU: 0x27901, offset: 0x27901, size: 0x8, addend: 0x0, symName: __ZNKSt3__117__compressed_pairIPNS_6vectorI4NodeNS_9allocatorIS2_EEEERNS3_IS5_EEE5firstB8ue170006Ev, symObjAddr: 0x3CC8, symBinAddr: 0x1000058B4, symSize: 0x24 }
  - { offsetInCU: 0x27927, offset: 0x27927, size: 0x8, addend: 0x0, symName: __ZNSt3__16vectorINS0_I4NodeNS_9allocatorIS1_EEEENS2_IS4_EEE22__base_destruct_at_endB8ue170006EPS4_, symObjAddr: 0x3CEC, symBinAddr: 0x1000058D8, symSize: 0x8C }
  - { offsetInCU: 0x2796B, offset: 0x2796B, size: 0x8, addend: 0x0, symName: __ZNKSt3__16vectorINS0_I4NodeNS_9allocatorIS1_EEEENS2_IS4_EEE17__annotate_shrinkB8ue170006Em, symObjAddr: 0x3D78, symBinAddr: 0x100005964, symSize: 0xD0 }
  - { offsetInCU: 0x279A0, offset: 0x279A0, size: 0x8, addend: 0x0, symName: __ZNSt3__16vectorINS0_I4NodeNS_9allocatorIS1_EEEENS2_IS4_EEED2B8ue170006Ev, symObjAddr: 0x3E48, symBinAddr: 0x100005A34, symSize: 0x44 }
  - { offsetInCU: 0x279CA, offset: 0x279CA, size: 0x8, addend: 0x0, symName: __ZNSt3__16vectorINS0_I4NodeNS_9allocatorIS1_EEEENS2_IS4_EEE16__destroy_vectorC1B8ue170006ERS6_, symObjAddr: 0x3E8C, symBinAddr: 0x100005A78, symSize: 0x34 }
  - { offsetInCU: 0x27A03, offset: 0x27A03, size: 0x8, addend: 0x0, symName: __ZNSt3__16vectorINS0_I4NodeNS_9allocatorIS1_EEEENS2_IS4_EEE16__destroy_vectorclB8ue170006Ev, symObjAddr: 0x3EC0, symBinAddr: 0x100005AAC, symSize: 0x90 }
  - { offsetInCU: 0x27A29, offset: 0x27A29, size: 0x8, addend: 0x0, symName: __ZNSt3__16vectorINS0_I4NodeNS_9allocatorIS1_EEEENS2_IS4_EEE16__destroy_vectorC2B8ue170006ERS6_, symObjAddr: 0x3F50, symBinAddr: 0x100005B3C, symSize: 0x20 }
  - { offsetInCU: 0x27A62, offset: 0x27A62, size: 0x8, addend: 0x0, symName: __ZNSt3__16vectorINS0_I4NodeNS_9allocatorIS1_EEEENS2_IS4_EEE7__clearB8ue170006Ev, symObjAddr: 0x3F70, symBinAddr: 0x100005B5C, symSize: 0x28 }
  - { offsetInCU: 0x27A88, offset: 0x27A88, size: 0x8, addend: 0x0, symName: __ZNSt3__16vectorI4LineNS_9allocatorIS1_EEED2B8ue170006Ev, symObjAddr: 0x3F98, symBinAddr: 0x100005B84, symSize: 0x44 }
  - { offsetInCU: 0x27AB2, offset: 0x27AB2, size: 0x8, addend: 0x0, symName: __ZNSt3__16vectorI4LineNS_9allocatorIS1_EEE16__destroy_vectorC1B8ue170006ERS4_, symObjAddr: 0x3FDC, symBinAddr: 0x100005BC8, symSize: 0x34 }
  - { offsetInCU: 0x27AEB, offset: 0x27AEB, size: 0x8, addend: 0x0, symName: __ZNSt3__16vectorI4LineNS_9allocatorIS1_EEE16__destroy_vectorclB8ue170006Ev, symObjAddr: 0x4010, symBinAddr: 0x100005BFC, symSize: 0x90 }
  - { offsetInCU: 0x27B11, offset: 0x27B11, size: 0x8, addend: 0x0, symName: __ZNSt3__16vectorI4LineNS_9allocatorIS1_EEE16__destroy_vectorC2B8ue170006ERS4_, symObjAddr: 0x40A0, symBinAddr: 0x100005C8C, symSize: 0x20 }
  - { offsetInCU: 0x27B4A, offset: 0x27B4A, size: 0x8, addend: 0x0, symName: __ZNSt3__16vectorI4LineNS_9allocatorIS1_EEE7__clearB8ue170006Ev, symObjAddr: 0x40C0, symBinAddr: 0x100005CAC, symSize: 0x28 }
  - { offsetInCU: 0x27B70, offset: 0x27B70, size: 0x8, addend: 0x0, symName: __ZNKSt3__16vectorI4LineNS_9allocatorIS1_EEE17__annotate_deleteB8ue170006Ev, symObjAddr: 0x40E8, symBinAddr: 0x100005CD4, symSize: 0xD4 }
  - { offsetInCU: 0x27B96, offset: 0x27B96, size: 0x8, addend: 0x0, symName: __ZNSt3__116allocator_traitsINS_9allocatorI4LineEEE10deallocateB8ue170006ERS3_PS2_m, symObjAddr: 0x41BC, symBinAddr: 0x100005DA8, symSize: 0x34 }
  - { offsetInCU: 0x27BD8, offset: 0x27BD8, size: 0x8, addend: 0x0, symName: __ZNSt3__16vectorI4LineNS_9allocatorIS1_EEE7__allocB8ue170006Ev, symObjAddr: 0x41F0, symBinAddr: 0x100005DDC, symSize: 0x28 }
  - { offsetInCU: 0x27BFE, offset: 0x27BFE, size: 0x8, addend: 0x0, symName: __ZNKSt3__16vectorI4LineNS_9allocatorIS1_EEE8capacityB8ue170006Ev, symObjAddr: 0x4218, symBinAddr: 0x100005E04, symSize: 0x40 }
  - { offsetInCU: 0x27C24, offset: 0x27C24, size: 0x8, addend: 0x0, symName: __ZNSt3__16vectorI4LineNS_9allocatorIS1_EEE22__base_destruct_at_endB8ue170006EPS1_, symObjAddr: 0x4258, symBinAddr: 0x100005E44, symSize: 0x8C }
  - { offsetInCU: 0x27C68, offset: 0x27C68, size: 0x8, addend: 0x0, symName: __ZNSt3__116allocator_traitsINS_9allocatorI4LineEEE7destroyB8ue170006IS2_vvEEvRS3_PT_, symObjAddr: 0x42E4, symBinAddr: 0x100005ED0, symSize: 0x28 }
  - { offsetInCU: 0x27CA3, offset: 0x27CA3, size: 0x8, addend: 0x0, symName: __ZN4LineD1Ev, symObjAddr: 0x4368, symBinAddr: 0x100005F54, symSize: 0x2C }
  - { offsetInCU: 0x27CCF, offset: 0x27CCF, size: 0x8, addend: 0x0, symName: __ZN4LineD2Ev, symObjAddr: 0x4394, symBinAddr: 0x100005F80, symSize: 0x2C }
  - { offsetInCU: 0x27CFB, offset: 0x27CFB, size: 0x8, addend: 0x0, symName: __ZNSt3__16vectorINS_12basic_stringIcNS_11char_traitsIcEENS_9allocatorIcEEEENS4_IS6_EEED1B8ue170006Ev, symObjAddr: 0x43C0, symBinAddr: 0x100005FAC, symSize: 0x2C }
  - { offsetInCU: 0x27D25, offset: 0x27D25, size: 0x8, addend: 0x0, symName: __ZNSt3__16vectorINS_12basic_stringIcNS_11char_traitsIcEENS_9allocatorIcEEEENS4_IS6_EEED2B8ue170006Ev, symObjAddr: 0x43EC, symBinAddr: 0x100005FD8, symSize: 0x44 }
  - { offsetInCU: 0x27D4F, offset: 0x27D4F, size: 0x8, addend: 0x0, symName: __ZNSt3__16vectorINS_12basic_stringIcNS_11char_traitsIcEENS_9allocatorIcEEEENS4_IS6_EEE16__destroy_vectorC1B8ue170006ERS8_, symObjAddr: 0x4430, symBinAddr: 0x10000601C, symSize: 0x34 }
  - { offsetInCU: 0x27D88, offset: 0x27D88, size: 0x8, addend: 0x0, symName: __ZNSt3__16vectorINS_12basic_stringIcNS_11char_traitsIcEENS_9allocatorIcEEEENS4_IS6_EEE16__destroy_vectorclB8ue170006Ev, symObjAddr: 0x4464, symBinAddr: 0x100006050, symSize: 0x90 }
  - { offsetInCU: 0x27DAE, offset: 0x27DAE, size: 0x8, addend: 0x0, symName: __ZNSt3__16vectorINS_12basic_stringIcNS_11char_traitsIcEENS_9allocatorIcEEEENS4_IS6_EEE16__destroy_vectorC2B8ue170006ERS8_, symObjAddr: 0x44F4, symBinAddr: 0x1000060E0, symSize: 0x20 }
  - { offsetInCU: 0x27DE7, offset: 0x27DE7, size: 0x8, addend: 0x0, symName: __ZNSt3__16vectorINS_12basic_stringIcNS_11char_traitsIcEENS_9allocatorIcEEEENS4_IS6_EEE7__clearB8ue170006Ev, symObjAddr: 0x4514, symBinAddr: 0x100006100, symSize: 0x28 }
  - { offsetInCU: 0x27E0D, offset: 0x27E0D, size: 0x8, addend: 0x0, symName: __ZNKSt3__16vectorINS_12basic_stringIcNS_11char_traitsIcEENS_9allocatorIcEEEENS4_IS6_EEE17__annotate_deleteB8ue170006Ev, symObjAddr: 0x453C, symBinAddr: 0x100006128, symSize: 0xD4 }
  - { offsetInCU: 0x27E33, offset: 0x27E33, size: 0x8, addend: 0x0, symName: __ZNSt3__116allocator_traitsINS_9allocatorINS_12basic_stringIcNS_11char_traitsIcEENS1_IcEEEEEEE10deallocateB8ue170006ERS7_PS6_m, symObjAddr: 0x4610, symBinAddr: 0x1000061FC, symSize: 0x34 }
  - { offsetInCU: 0x27E75, offset: 0x27E75, size: 0x8, addend: 0x0, symName: __ZNSt3__16vectorINS_12basic_stringIcNS_11char_traitsIcEENS_9allocatorIcEEEENS4_IS6_EEE7__allocB8ue170006Ev, symObjAddr: 0x4644, symBinAddr: 0x100006230, symSize: 0x28 }
  - { offsetInCU: 0x27E9B, offset: 0x27E9B, size: 0x8, addend: 0x0, symName: __ZNKSt3__16vectorINS_12basic_stringIcNS_11char_traitsIcEENS_9allocatorIcEEEENS4_IS6_EEE8capacityB8ue170006Ev, symObjAddr: 0x466C, symBinAddr: 0x100006258, symSize: 0x40 }
  - { offsetInCU: 0x27EC1, offset: 0x27EC1, size: 0x8, addend: 0x0, symName: __ZNSt3__16vectorINS_12basic_stringIcNS_11char_traitsIcEENS_9allocatorIcEEEENS4_IS6_EEE22__base_destruct_at_endB8ue170006EPS6_, symObjAddr: 0x46AC, symBinAddr: 0x100006298, symSize: 0x8C }
  - { offsetInCU: 0x27F05, offset: 0x27F05, size: 0x8, addend: 0x0, symName: __ZNSt3__116allocator_traitsINS_9allocatorINS_12basic_stringIcNS_11char_traitsIcEENS1_IcEEEEEEE7destroyB8ue170006IS6_vvEEvRS7_PT_, symObjAddr: 0x4738, symBinAddr: 0x100006324, symSize: 0x28 }
  - { offsetInCU: 0x27F40, offset: 0x27F40, size: 0x8, addend: 0x0, symName: __ZNKSt3__16vectorINS_12basic_stringIcNS_11char_traitsIcEENS_9allocatorIcEEEENS4_IS6_EEE31__annotate_contiguous_containerB8ue170006EPKvSA_SA_SA_, symObjAddr: 0x47BC, symBinAddr: 0x1000063A8, symSize: 0x20 }
  - { offsetInCU: 0x27F96, offset: 0x27F96, size: 0x8, addend: 0x0, symName: __ZNKSt3__16vectorINS_12basic_stringIcNS_11char_traitsIcEENS_9allocatorIcEEEENS4_IS6_EEE4dataB8ue170006Ev, symObjAddr: 0x47DC, symBinAddr: 0x1000063C8, symSize: 0x28 }
  - { offsetInCU: 0x27FBC, offset: 0x27FBC, size: 0x8, addend: 0x0, symName: __ZNKSt3__16vectorINS_12basic_stringIcNS_11char_traitsIcEENS_9allocatorIcEEEENS4_IS6_EEE4sizeB8ue170006Ev, symObjAddr: 0x4804, symBinAddr: 0x1000063F0, symSize: 0x28 }
  - { offsetInCU: 0x27FE2, offset: 0x27FE2, size: 0x8, addend: 0x0, symName: __ZNSt3__19allocatorINS_12basic_stringIcNS_11char_traitsIcEENS0_IcEEEEE10deallocateB8ue170006EPS5_m, symObjAddr: 0x482C, symBinAddr: 0x100006418, symSize: 0x44 }
  - { offsetInCU: 0x28024, offset: 0x28024, size: 0x8, addend: 0x0, symName: __ZNSt3__117__compressed_pairIPNS_12basic_stringIcNS_11char_traitsIcEENS_9allocatorIcEEEENS4_IS6_EEE6secondB8ue170006Ev, symObjAddr: 0x4870, symBinAddr: 0x10000645C, symSize: 0x24 }
  - { offsetInCU: 0x2804A, offset: 0x2804A, size: 0x8, addend: 0x0, symName: __ZNSt3__122__compressed_pair_elemINS_9allocatorINS_12basic_stringIcNS_11char_traitsIcEENS1_IcEEEEEELi1ELb1EE5__getB8ue170006Ev, symObjAddr: 0x4894, symBinAddr: 0x100006480, symSize: 0x14 }
  - { offsetInCU: 0x28070, offset: 0x28070, size: 0x8, addend: 0x0, symName: __ZNKSt3__16vectorINS_12basic_stringIcNS_11char_traitsIcEENS_9allocatorIcEEEENS4_IS6_EEE9__end_capB8ue170006Ev, symObjAddr: 0x48A8, symBinAddr: 0x100006494, symSize: 0x28 }
  - { offsetInCU: 0x28096, offset: 0x28096, size: 0x8, addend: 0x0, symName: __ZNKSt3__117__compressed_pairIPNS_12basic_stringIcNS_11char_traitsIcEENS_9allocatorIcEEEENS4_IS6_EEE5firstB8ue170006Ev, symObjAddr: 0x48D0, symBinAddr: 0x1000064BC, symSize: 0x24 }
  - { offsetInCU: 0x280BC, offset: 0x280BC, size: 0x8, addend: 0x0, symName: __ZNKSt3__122__compressed_pair_elemIPNS_12basic_stringIcNS_11char_traitsIcEENS_9allocatorIcEEEELi0ELb0EE5__getB8ue170006Ev, symObjAddr: 0x48F4, symBinAddr: 0x1000064E0, symSize: 0x14 }
  - { offsetInCU: 0x280E2, offset: 0x280E2, size: 0x8, addend: 0x0, symName: __ZNKSt3__16vectorI4LineNS_9allocatorIS1_EEE31__annotate_contiguous_containerB8ue170006EPKvS6_S6_S6_, symObjAddr: 0x4908, symBinAddr: 0x1000064F4, symSize: 0x20 }
  - { offsetInCU: 0x28138, offset: 0x28138, size: 0x8, addend: 0x0, symName: __ZNKSt3__16vectorI4LineNS_9allocatorIS1_EEE4dataB8ue170006Ev, symObjAddr: 0x4928, symBinAddr: 0x100006514, symSize: 0x28 }
  - { offsetInCU: 0x2815E, offset: 0x2815E, size: 0x8, addend: 0x0, symName: __ZNKSt3__16vectorI4LineNS_9allocatorIS1_EEE4sizeB8ue170006Ev, symObjAddr: 0x4950, symBinAddr: 0x10000653C, symSize: 0x28 }
  - { offsetInCU: 0x28184, offset: 0x28184, size: 0x8, addend: 0x0, symName: __ZNSt3__19allocatorI4LineE10deallocateB8ue170006EPS1_m, symObjAddr: 0x4978, symBinAddr: 0x100006564, symSize: 0x44 }
  - { offsetInCU: 0x281C6, offset: 0x281C6, size: 0x8, addend: 0x0, symName: __ZNSt3__117__compressed_pairIP4LineNS_9allocatorIS1_EEE6secondB8ue170006Ev, symObjAddr: 0x49BC, symBinAddr: 0x1000065A8, symSize: 0x24 }
  - { offsetInCU: 0x281EC, offset: 0x281EC, size: 0x8, addend: 0x0, symName: __ZNSt3__122__compressed_pair_elemINS_9allocatorI4LineEELi1ELb1EE5__getB8ue170006Ev, symObjAddr: 0x49E0, symBinAddr: 0x1000065CC, symSize: 0x14 }
  - { offsetInCU: 0x28212, offset: 0x28212, size: 0x8, addend: 0x0, symName: __ZNKSt3__16vectorI4LineNS_9allocatorIS1_EEE9__end_capB8ue170006Ev, symObjAddr: 0x49F4, symBinAddr: 0x1000065E0, symSize: 0x28 }
  - { offsetInCU: 0x28238, offset: 0x28238, size: 0x8, addend: 0x0, symName: __ZNKSt3__117__compressed_pairIP4LineNS_9allocatorIS1_EEE5firstB8ue170006Ev, symObjAddr: 0x4A1C, symBinAddr: 0x100006608, symSize: 0x24 }
  - { offsetInCU: 0x2825E, offset: 0x2825E, size: 0x8, addend: 0x0, symName: __ZNKSt3__122__compressed_pair_elemIP4LineLi0ELb0EE5__getB8ue170006Ev, symObjAddr: 0x4A40, symBinAddr: 0x10000662C, symSize: 0x14 }
  - { offsetInCU: 0x28335, offset: 0x28335, size: 0x8, addend: 0x0, symName: __ZNSt3__114basic_ifstreamIcNS_11char_traitsIcEEEC1Ev, symObjAddr: 0x4A54, symBinAddr: 0x100006640, symSize: 0xE8 }
  - { offsetInCU: 0x28361, offset: 0x28361, size: 0x8, addend: 0x0, symName: __ZNKSt3__114basic_ifstreamIcNS_11char_traitsIcEEE7is_openEv, symObjAddr: 0x4B3C, symBinAddr: 0x100006728, symSize: 0x2C }
  - { offsetInCU: 0x28403, offset: 0x28403, size: 0x8, addend: 0x0, symName: __ZNSt3__15tupleIJbNS_12basic_stringIcNS_11char_traitsIcEENS_9allocatorIcEEEEEEC1B8ue170006IJbPKcELi0EEEONS0_IJDpT_EEE, symObjAddr: 0x4BA0, symBinAddr: 0x10000678C, symSize: 0x34 }
  - { offsetInCU: 0x28452, offset: 0x28452, size: 0x8, addend: 0x0, symName: __ZNSt3__119istreambuf_iteratorIcNS_11char_traitsIcEEEC1B8ue170006ERNS_13basic_istreamIcS2_EE, symObjAddr: 0x4C54, symBinAddr: 0x100006840, symSize: 0x34 }
  - { offsetInCU: 0x2848A, offset: 0x2848A, size: 0x8, addend: 0x0, symName: __ZNSt3__119istreambuf_iteratorIcNS_11char_traitsIcEEEC1B8ue170006Ev, symObjAddr: 0x4C88, symBinAddr: 0x100006874, symSize: 0x2C }
  - { offsetInCU: 0x284B4, offset: 0x284B4, size: 0x8, addend: 0x0, symName: __ZNSt3__114basic_ifstreamIcNS_11char_traitsIcEEE5closeEv, symObjAddr: 0x4CB4, symBinAddr: 0x1000068A0, symSize: 0x58 }
  - { offsetInCU: 0x284DC, offset: 0x284DC, size: 0x8, addend: 0x0, symName: __ZN7HashMap7rescaleEm, symObjAddr: 0x4D0C, symBinAddr: 0x1000068F8, symSize: 0x34 }
  - { offsetInCU: 0x28510, offset: 0x28510, size: 0x8, addend: 0x0, symName: __ZNKSt3__19basic_iosIcNS_11char_traitsIcEEEcvbB8ue170006Ev, symObjAddr: 0x4D9C, symBinAddr: 0x100006988, symSize: 0x2C }
  - { offsetInCU: 0x28536, offset: 0x28536, size: 0x8, addend: 0x0, symName: __ZNSt3__16vectorINS_12basic_stringIcNS_11char_traitsIcEENS_9allocatorIcEEEENS4_IS6_EEEC1B8ue170006Ev, symObjAddr: 0x4DC8, symBinAddr: 0x1000069B4, symSize: 0x2C }
  - { offsetInCU: 0x28560, offset: 0x28560, size: 0x8, addend: 0x0, symName: __ZN4LineC1ENSt3__16vectorINS0_12basic_stringIcNS0_11char_traitsIcEENS0_9allocatorIcEEEENS5_IS7_EEEEcb, symObjAddr: 0x4DF4, symBinAddr: 0x1000069E0, symSize: 0x50 }
  - { offsetInCU: 0x285B5, offset: 0x285B5, size: 0x8, addend: 0x0, symName: __ZN4LineaSERKNSt3__112basic_stringIcNS0_11char_traitsIcEENS0_9allocatorIcEEEE, symObjAddr: 0x4E44, symBinAddr: 0x100006A30, symSize: 0x2C }
  - { offsetInCU: 0x285E9, offset: 0x285E9, size: 0x8, addend: 0x0, symName: __ZN4Line9setHeaderEb, symObjAddr: 0x4E70, symBinAddr: 0x100006A5C, symSize: 0x2C }
  - { offsetInCU: 0x2861D, offset: 0x2861D, size: 0x8, addend: 0x0, symName: __ZNSt3__16vectorI4LineNS_9allocatorIS1_EEE9push_backB8ue170006ERKS1_, symObjAddr: 0x4E9C, symBinAddr: 0x100006A88, symSize: 0x6C }
  - { offsetInCU: 0x28654, offset: 0x28654, size: 0x8, addend: 0x0, symName: __ZN7HashMap4stowENSt3__112basic_stringIcNS0_11char_traitsIcEENS0_9allocatorIcEEEEi, symObjAddr: 0x4F08, symBinAddr: 0x100006AF4, symSize: 0x11C }
  - { offsetInCU: 0x286C1, offset: 0x286C1, size: 0x8, addend: 0x0, symName: __ZN4Line8toStringEi, symObjAddr: 0x5024, symBinAddr: 0x100006C10, symSize: 0x1E8 }
  - { offsetInCU: 0x28755, offset: 0x28755, size: 0x8, addend: 0x0, symName: __ZNSt3__114basic_ifstreamIcNS_11char_traitsIcEEED1Ev, symObjAddr: 0x5244, symBinAddr: 0x100006E30, symSize: 0x40 }
  - { offsetInCU: 0x28782, offset: 0x28782, size: 0x8, addend: 0x0, symName: __ZNSt3__19basic_iosIcNS_11char_traitsIcEEEC2B8ue170006Ev, symObjAddr: 0x5284, symBinAddr: 0x100006E70, symSize: 0x44 }
  - { offsetInCU: 0x287AC, offset: 0x287AC, size: 0x8, addend: 0x0, symName: __ZNSt3__113basic_istreamIcNS_11char_traitsIcEEEC2B8ue170006EPNS_15basic_streambufIcS2_EE, symObjAddr: 0x52C8, symBinAddr: 0x100006EB4, symSize: 0x64 }
  - { offsetInCU: 0x287F1, offset: 0x287F1, size: 0x8, addend: 0x0, symName: __ZNSt3__18ios_baseC2B8ue170006Ev, symObjAddr: 0x532C, symBinAddr: 0x100006F18, symSize: 0x24 }
  - { offsetInCU: 0x2881B, offset: 0x2881B, size: 0x8, addend: 0x0, symName: __ZNSt3__19basic_iosIcNS_11char_traitsIcEEE4initB8ue170006EPNS_15basic_streambufIcS2_EE, symObjAddr: 0x5350, symBinAddr: 0x100006F3C, symSize: 0x44 }
  - { offsetInCU: 0x28852, offset: 0x28852, size: 0x8, addend: 0x0, symName: __ZNSt3__111char_traitsIcE3eofB8ue170006Ev, symObjAddr: 0x5394, symBinAddr: 0x100006F80, symSize: 0x8 }
  - { offsetInCU: 0x28866, offset: 0x28866, size: 0x8, addend: 0x0, symName: __ZNKSt3__113basic_filebufIcNS_11char_traitsIcEEE7is_openEv, symObjAddr: 0x539C, symBinAddr: 0x100006F88, symSize: 0x24 }
  - { offsetInCU: 0x288AD, offset: 0x288AD, size: 0x8, addend: 0x0, symName: __ZNSt3__15tupleIJbPKcEEC1B8ue170006IJbRA35_S1_ELi0EEEDpOT_, symObjAddr: 0x53C0, symBinAddr: 0x100006FAC, symSize: 0x3C }
  - { offsetInCU: 0x2890B, offset: 0x2890B, size: 0x8, addend: 0x0, symName: __ZNSt3__15tupleIJbPKcEEC2B8ue170006IJbRA35_S1_ELi0EEEDpOT_, symObjAddr: 0x53FC, symBinAddr: 0x100006FE8, symSize: 0x3C }
  - { offsetInCU: 0x28969, offset: 0x28969, size: 0x8, addend: 0x0, symName: __ZNSt3__112__tuple_implINS_15__tuple_indicesIJLm0ELm1EEEEJbPKcEEC1B8ue170006IJLm0ELm1EEJbS4_EJEJEJbRA35_S3_EEENS1_IJXspT_EEEENS_13__tuple_typesIJDpT0_EEENS1_IJXspT1_EEEENSA_IJDpT2_EEEDpOT3_, symObjAddr: 0x5438, symBinAddr: 0x100007024, symSize: 0x3C }
  - { offsetInCU: 0x28A1D, offset: 0x28A1D, size: 0x8, addend: 0x0, symName: __ZNSt3__112__tuple_implINS_15__tuple_indicesIJLm0ELm1EEEEJbPKcEEC2B8ue170006IJLm0ELm1EEJbS4_EJEJEJbRA35_S3_EEENS1_IJXspT_EEEENS_13__tuple_typesIJDpT0_EEENS1_IJXspT1_EEEENSA_IJDpT2_EEEDpOT3_, symObjAddr: 0x5474, symBinAddr: 0x100007060, symSize: 0x48 }
  - { offsetInCU: 0x28AD1, offset: 0x28AD1, size: 0x8, addend: 0x0, symName: __ZNSt3__112__tuple_leafILm0EbLb0EEC2B8ue170006IbvEEOT_, symObjAddr: 0x54BC, symBinAddr: 0x1000070A8, symSize: 0x28 }
  - { offsetInCU: 0x28B14, offset: 0x28B14, size: 0x8, addend: 0x0, symName: __ZNSt3__112__tuple_leafILm1EPKcLb0EEC2B8ue170006IRA35_S1_vEEOT_, symObjAddr: 0x54E4, symBinAddr: 0x1000070D0, symSize: 0x20 }
  - { offsetInCU: 0x28B57, offset: 0x28B57, size: 0x8, addend: 0x0, symName: __ZNSt3__15tupleIJbNS_12basic_stringIcNS_11char_traitsIcEENS_9allocatorIcEEEEEEC2B8ue170006IJbPKcELi0EEEONS0_IJDpT_EEE, symObjAddr: 0x5504, symBinAddr: 0x1000070F0, symSize: 0x34 }
  - { offsetInCU: 0x28BA6, offset: 0x28BA6, size: 0x8, addend: 0x0, symName: __ZNSt3__112__tuple_implINS_15__tuple_indicesIJLm0ELm1EEEEJbNS_12basic_stringIcNS_11char_traitsIcEENS_9allocatorIcEEEEEEC1B8ue170006INS_5tupleIJbPKcEEEvEEOT_, symObjAddr: 0x5538, symBinAddr: 0x100007124, symSize: 0x34 }
  - { offsetInCU: 0x28BE9, offset: 0x28BE9, size: 0x8, addend: 0x0, symName: __ZNSt3__112__tuple_implINS_15__tuple_indicesIJLm0ELm1EEEEJbNS_12basic_stringIcNS_11char_traitsIcEENS_9allocatorIcEEEEEEC2B8ue170006INS_5tupleIJbPKcEEEvEEOT_, symObjAddr: 0x556C, symBinAddr: 0x100007158, symSize: 0x58 }
  - { offsetInCU: 0x28C32, offset: 0x28C32, size: 0x8, addend: 0x0, symName: __ZNSt3__112__tuple_leafILm1ENS_12basic_stringIcNS_11char_traitsIcEENS_9allocatorIcEEEELb0EEC2B8ue170006IPKcvEEOT_, symObjAddr: 0x5610, symBinAddr: 0x1000071FC, symSize: 0x38 }
  - { offsetInCU: 0x28C75, offset: 0x28C75, size: 0x8, addend: 0x0, symName: __ZNSt3__112__tuple_leafILm0EbLb0EE3getB8ue170006Ev, symObjAddr: 0x5648, symBinAddr: 0x100007234, symSize: 0x14 }
  - { offsetInCU: 0x28C9B, offset: 0x28C9B, size: 0x8, addend: 0x0, symName: __ZNSt3__112__tuple_leafILm1EPKcLb0EE3getB8ue170006Ev, symObjAddr: 0x565C, symBinAddr: 0x100007248, symSize: 0x14 }
  - { offsetInCU: 0x28CCC, offset: 0x28CCC, size: 0x8, addend: 0x0, symName: __ZZN6Cenote11processFileERKNSt3__112basic_stringIcNS0_11char_traitsIcEENS0_9allocatorIcEEEEENKUlcE_clEc, symObjAddr: 0x56A0, symBinAddr: 0x10000728C, symSize: 0x24 }
  - { offsetInCU: 0x28D04, offset: 0x28D04, size: 0x8, addend: 0x0, symName: __ZNKSt3__119istreambuf_iteratorIcNS_11char_traitsIcEEEdeB8ue170006Ev, symObjAddr: 0x56C4, symBinAddr: 0x1000072B0, symSize: 0x2C }
  - { offsetInCU: 0x28D2A, offset: 0x28D2A, size: 0x8, addend: 0x0, symName: __ZNSt3__119istreambuf_iteratorIcNS_11char_traitsIcEEEppB8ue170006Ev, symObjAddr: 0x56F0, symBinAddr: 0x1000072DC, symSize: 0x30 }
  - { offsetInCU: 0x28D50, offset: 0x28D50, size: 0x8, addend: 0x0, symName: __ZNKSt3__119istreambuf_iteratorIcNS_11char_traitsIcEEE5equalB8ue170006ERKS3_, symObjAddr: 0x5720, symBinAddr: 0x10000730C, symSize: 0x4C }
  - { offsetInCU: 0x28D84, offset: 0x28D84, size: 0x8, addend: 0x0, symName: __ZNKSt3__119istreambuf_iteratorIcNS_11char_traitsIcEEE14__test_for_eofB8ue170006Ev, symObjAddr: 0x576C, symBinAddr: 0x100007358, symSize: 0x80 }
  - { offsetInCU: 0x28DAA, offset: 0x28DAA, size: 0x8, addend: 0x0, symName: __ZNSt3__111char_traitsIcE11eq_int_typeB8ue170006Eii, symObjAddr: 0x57EC, symBinAddr: 0x1000073D8, symSize: 0x28 }
  - { offsetInCU: 0x28DDD, offset: 0x28DDD, size: 0x8, addend: 0x0, symName: __ZNSt3__115basic_streambufIcNS_11char_traitsIcEEE5sgetcB8ue170006Ev, symObjAddr: 0x5814, symBinAddr: 0x100007400, symSize: 0x70 }
  - { offsetInCU: 0x28E03, offset: 0x28E03, size: 0x8, addend: 0x0, symName: __ZNSt3__111char_traitsIcE11to_int_typeB8ue170006Ec, symObjAddr: 0x5884, symBinAddr: 0x100007470, symSize: 0x14 }
  - { offsetInCU: 0x28E27, offset: 0x28E27, size: 0x8, addend: 0x0, symName: __ZNSt3__115basic_streambufIcNS_11char_traitsIcEEE6sbumpcB8ue170006Ev, symObjAddr: 0x5898, symBinAddr: 0x100007484, symSize: 0x78 }
  - { offsetInCU: 0x28E4D, offset: 0x28E4D, size: 0x8, addend: 0x0, symName: __ZNSt3__119istreambuf_iteratorIcNS_11char_traitsIcEEEC2B8ue170006ERNS_13basic_istreamIcS2_EE, symObjAddr: 0x5910, symBinAddr: 0x1000074FC, symSize: 0x54 }
  - { offsetInCU: 0x28E85, offset: 0x28E85, size: 0x8, addend: 0x0, symName: __ZNKSt3__19basic_iosIcNS_11char_traitsIcEEE5rdbufB8ue170006Ev, symObjAddr: 0x5964, symBinAddr: 0x100007550, symSize: 0x24 }
  - { offsetInCU: 0x28EAD, offset: 0x28EAD, size: 0x8, addend: 0x0, symName: __ZNKSt3__18ios_base5rdbufB8ue170006Ev, symObjAddr: 0x5988, symBinAddr: 0x100007574, symSize: 0x18 }
  - { offsetInCU: 0x28ED3, offset: 0x28ED3, size: 0x8, addend: 0x0, symName: __ZNSt3__119istreambuf_iteratorIcNS_11char_traitsIcEEEC2B8ue170006Ev, symObjAddr: 0x59A0, symBinAddr: 0x10000758C, symSize: 0x18 }
  - { offsetInCU: 0x28EFD, offset: 0x28EFD, size: 0x8, addend: 0x0, symName: __ZNSt3__19basic_iosIcNS_11char_traitsIcEEE8setstateB8ue170006Ej, symObjAddr: 0x59B8, symBinAddr: 0x1000075A4, symSize: 0x2C }
  - { offsetInCU: 0x28F32, offset: 0x28F32, size: 0x8, addend: 0x0, symName: __ZNSt3__18ios_base8setstateB8ue170006Ej, symObjAddr: 0x59E4, symBinAddr: 0x1000075D0, symSize: 0x34 }
  - { offsetInCU: 0x28F69, offset: 0x28F69, size: 0x8, addend: 0x0, symName: __ZNKSt3__19basic_iosIcNS_11char_traitsIcEEE5widenB8ue170006Ec, symObjAddr: 0x5A18, symBinAddr: 0x100007604, symSize: 0x84 }
  - { offsetInCU: 0x28FCE, offset: 0x28FCE, size: 0x8, addend: 0x0, symName: __ZNKSt3__15ctypeIcE5widenB8ue170006Ec, symObjAddr: 0x5AC8, symBinAddr: 0x1000076B4, symSize: 0x38 }
  - { offsetInCU: 0x29003, offset: 0x29003, size: 0x8, addend: 0x0, symName: __ZNKSt3__19basic_iosIcNS_11char_traitsIcEEE4failB8ue170006Ev, symObjAddr: 0x5B00, symBinAddr: 0x1000076EC, symSize: 0x28 }
  - { offsetInCU: 0x29029, offset: 0x29029, size: 0x8, addend: 0x0, symName: __ZNKSt3__18ios_base4failB8ue170006Ev, symObjAddr: 0x5B28, symBinAddr: 0x100007714, symSize: 0x28 }
  - { offsetInCU: 0x29051, offset: 0x29051, size: 0x8, addend: 0x0, symName: __ZNSt3__16vectorINS_12basic_stringIcNS_11char_traitsIcEENS_9allocatorIcEEEENS4_IS6_EEEC2B8ue170006Ev, symObjAddr: 0x5B50, symBinAddr: 0x10000773C, symSize: 0x4C }
  - { offsetInCU: 0x2907B, offset: 0x2907B, size: 0x8, addend: 0x0, symName: __ZNSt3__117__compressed_pairIPNS_12basic_stringIcNS_11char_traitsIcEENS_9allocatorIcEEEENS4_IS6_EEEC1B8ue170006IDnNS_18__default_init_tagEEEOT_OT0_, symObjAddr: 0x5B9C, symBinAddr: 0x100007788, symSize: 0x3C }
  - { offsetInCU: 0x290D3, offset: 0x290D3, size: 0x8, addend: 0x0, symName: __ZNSt3__117__compressed_pairIPNS_12basic_stringIcNS_11char_traitsIcEENS_9allocatorIcEEEENS4_IS6_EEEC2B8ue170006IDnNS_18__default_init_tagEEEOT_OT0_, symObjAddr: 0x5BD8, symBinAddr: 0x1000077C4, symSize: 0x40 }
  - { offsetInCU: 0x2912B, offset: 0x2912B, size: 0x8, addend: 0x0, symName: __ZNSt3__122__compressed_pair_elemIPNS_12basic_stringIcNS_11char_traitsIcEENS_9allocatorIcEEEELi0ELb0EEC2B8ue170006IDnvEEOT_, symObjAddr: 0x5C18, symBinAddr: 0x100007804, symSize: 0x1C }
  - { offsetInCU: 0x2916D, offset: 0x2916D, size: 0x8, addend: 0x0, symName: __ZNSt3__122__compressed_pair_elemINS_9allocatorINS_12basic_stringIcNS_11char_traitsIcEENS1_IcEEEEEELi1ELb1EEC2B8ue170006ENS_18__default_init_tagE, symObjAddr: 0x5C34, symBinAddr: 0x100007820, symSize: 0x2C }
  - { offsetInCU: 0x291A1, offset: 0x291A1, size: 0x8, addend: 0x0, symName: __ZNSt3__19allocatorINS_12basic_stringIcNS_11char_traitsIcEENS0_IcEEEEEC2B8ue170006Ev, symObjAddr: 0x5C60, symBinAddr: 0x10000784C, symSize: 0x2C }
  - { offsetInCU: 0x291CB, offset: 0x291CB, size: 0x8, addend: 0x0, symName: __ZNSt3__116__non_trivial_ifILb1ENS_9allocatorINS_12basic_stringIcNS_11char_traitsIcEENS1_IcEEEEEEEC2B8ue170006Ev, symObjAddr: 0x5C8C, symBinAddr: 0x100007878, symSize: 0x14 }
  - { offsetInCU: 0x291F5, offset: 0x291F5, size: 0x8, addend: 0x0, symName: __ZN4LineC2ENSt3__16vectorINS0_12basic_stringIcNS0_11char_traitsIcEENS0_9allocatorIcEEEENS5_IS7_EEEEcb, symObjAddr: 0x5CA0, symBinAddr: 0x10000788C, symSize: 0x6C }
  - { offsetInCU: 0x2924A, offset: 0x2924A, size: 0x8, addend: 0x0, symName: __ZNSt3__16vectorINS_12basic_stringIcNS_11char_traitsIcEENS_9allocatorIcEEEENS4_IS6_EEEC1ERKS8_, symObjAddr: 0x5D0C, symBinAddr: 0x1000078F8, symSize: 0x34 }
  - { offsetInCU: 0x29285, offset: 0x29285, size: 0x8, addend: 0x0, symName: __ZNSt3__16vectorINS_12basic_stringIcNS_11char_traitsIcEENS_9allocatorIcEEEENS4_IS6_EEEC2ERKS8_, symObjAddr: 0x5D40, symBinAddr: 0x10000792C, symSize: 0x94 }
  - { offsetInCU: 0x292CB, offset: 0x292CB, size: 0x8, addend: 0x0, symName: __ZNSt3__116allocator_traitsINS_9allocatorINS_12basic_stringIcNS_11char_traitsIcEENS1_IcEEEEEEE37select_on_container_copy_constructionB8ue170006IS7_vvEES7_RKS7_, symObjAddr: 0x5DD4, symBinAddr: 0x1000079C0, symSize: 0x10 }
  - { offsetInCU: 0x292FA, offset: 0x292FA, size: 0x8, addend: 0x0, symName: __ZNKSt3__16vectorINS_12basic_stringIcNS_11char_traitsIcEENS_9allocatorIcEEEENS4_IS6_EEE7__allocB8ue170006Ev, symObjAddr: 0x5DE4, symBinAddr: 0x1000079D0, symSize: 0x28 }
  - { offsetInCU: 0x29326, offset: 0x29326, size: 0x8, addend: 0x0, symName: __ZNSt3__117__compressed_pairIPNS_12basic_stringIcNS_11char_traitsIcEENS_9allocatorIcEEEENS4_IS6_EEEC1B8ue170006IDnS8_EEOT_OT0_, symObjAddr: 0x5E0C, symBinAddr: 0x1000079F8, symSize: 0x3C }
  - { offsetInCU: 0x2937E, offset: 0x2937E, size: 0x8, addend: 0x0, symName: __ZNSt3__16vectorINS_12basic_stringIcNS_11char_traitsIcEENS_9allocatorIcEEEENS4_IS6_EEE16__init_with_sizeB8ue170006IPS6_SA_EEvT_T0_m, symObjAddr: 0x5E48, symBinAddr: 0x100007A34, symSize: 0xB8 }
  - { offsetInCU: 0x293F2, offset: 0x293F2, size: 0x8, addend: 0x0, symName: __ZNKSt3__117__compressed_pairIPNS_12basic_stringIcNS_11char_traitsIcEENS_9allocatorIcEEEENS4_IS6_EEE6secondB8ue170006Ev, symObjAddr: 0x5F00, symBinAddr: 0x100007AEC, symSize: 0x24 }
  - { offsetInCU: 0x29418, offset: 0x29418, size: 0x8, addend: 0x0, symName: __ZNKSt3__122__compressed_pair_elemINS_9allocatorINS_12basic_stringIcNS_11char_traitsIcEENS1_IcEEEEEELi1ELb1EE5__getB8ue170006Ev, symObjAddr: 0x5F24, symBinAddr: 0x100007B10, symSize: 0x14 }
  - { offsetInCU: 0x2943E, offset: 0x2943E, size: 0x8, addend: 0x0, symName: __ZNSt3__117__compressed_pairIPNS_12basic_stringIcNS_11char_traitsIcEENS_9allocatorIcEEEENS4_IS6_EEEC2B8ue170006IDnS8_EEOT_OT0_, symObjAddr: 0x5F38, symBinAddr: 0x100007B24, symSize: 0x44 }
  - { offsetInCU: 0x29496, offset: 0x29496, size: 0x8, addend: 0x0, symName: __ZNSt3__122__compressed_pair_elemINS_9allocatorINS_12basic_stringIcNS_11char_traitsIcEENS1_IcEEEEEELi1ELb1EEC2B8ue170006IS7_vEEOT_, symObjAddr: 0x5F7C, symBinAddr: 0x100007B68, symSize: 0x18 }
  - { offsetInCU: 0x294D8, offset: 0x294D8, size: 0x8, addend: 0x0, symName: __ZNSt3__16vectorINS_12basic_stringIcNS_11char_traitsIcEENS_9allocatorIcEEEENS4_IS6_EEE11__vallocateB8ue170006Em, symObjAddr: 0x5FD4, symBinAddr: 0x100007BC0, symSize: 0xB4 }
  - { offsetInCU: 0x2951C, offset: 0x2951C, size: 0x8, addend: 0x0, symName: __ZNSt3__16vectorINS_12basic_stringIcNS_11char_traitsIcEENS_9allocatorIcEEEENS4_IS6_EEE18__construct_at_endIPS6_SA_EEvT_T0_m, symObjAddr: 0x6088, symBinAddr: 0x100007C74, symSize: 0x8C }
  - { offsetInCU: 0x29592, offset: 0x29592, size: 0x8, addend: 0x0, symName: __ZNSt3__128__exception_guard_exceptionsINS_6vectorINS_12basic_stringIcNS_11char_traitsIcEENS_9allocatorIcEEEENS5_IS7_EEE16__destroy_vectorEE10__completeB8ue170006Ev, symObjAddr: 0x6114, symBinAddr: 0x100007D00, symSize: 0x1C }
  - { offsetInCU: 0x295B8, offset: 0x295B8, size: 0x8, addend: 0x0, symName: __ZNSt3__128__exception_guard_exceptionsINS_6vectorINS_12basic_stringIcNS_11char_traitsIcEENS_9allocatorIcEEEENS5_IS7_EEE16__destroy_vectorEED1B8ue170006Ev, symObjAddr: 0x6130, symBinAddr: 0x100007D1C, symSize: 0x2C }
  - { offsetInCU: 0x295E2, offset: 0x295E2, size: 0x8, addend: 0x0, symName: __ZNSt3__128__exception_guard_exceptionsINS_6vectorINS_12basic_stringIcNS_11char_traitsIcEENS_9allocatorIcEEEENS5_IS7_EEE16__destroy_vectorEEC1B8ue170006ESA_, symObjAddr: 0x615C, symBinAddr: 0x100007D48, symSize: 0x34 }
  - { offsetInCU: 0x2961A, offset: 0x2961A, size: 0x8, addend: 0x0, symName: __ZNSt3__128__exception_guard_exceptionsINS_6vectorINS_12basic_stringIcNS_11char_traitsIcEENS_9allocatorIcEEEENS5_IS7_EEE16__destroy_vectorEEC2B8ue170006ESA_, symObjAddr: 0x6190, symBinAddr: 0x100007D7C, symSize: 0x24 }
  - { offsetInCU: 0x29652, offset: 0x29652, size: 0x8, addend: 0x0, symName: __ZNKSt3__16vectorINS_12basic_stringIcNS_11char_traitsIcEENS_9allocatorIcEEEENS4_IS6_EEE8max_sizeEv, symObjAddr: 0x61B4, symBinAddr: 0x100007DA0, symSize: 0x60 }
  - { offsetInCU: 0x2967A, offset: 0x2967A, size: 0x8, addend: 0x0, symName: __ZNKSt3__16vectorINS_12basic_stringIcNS_11char_traitsIcEENS_9allocatorIcEEEENS4_IS6_EEE20__throw_length_errorB8ue170006Ev, symObjAddr: 0x6214, symBinAddr: 0x100007E00, symSize: 0x1C }
  - { offsetInCU: 0x296A0, offset: 0x296A0, size: 0x8, addend: 0x0, symName: __ZNSt3__16vectorINS_12basic_stringIcNS_11char_traitsIcEENS_9allocatorIcEEEENS4_IS6_EEE9__end_capB8ue170006Ev, symObjAddr: 0x626C, symBinAddr: 0x100007E58, symSize: 0x28 }
  - { offsetInCU: 0x296C6, offset: 0x296C6, size: 0x8, addend: 0x0, symName: __ZNKSt3__16vectorINS_12basic_stringIcNS_11char_traitsIcEENS_9allocatorIcEEEENS4_IS6_EEE14__annotate_newB8ue170006Em, symObjAddr: 0x6294, symBinAddr: 0x100007E80, symSize: 0xC8 }
  - { offsetInCU: 0x296FB, offset: 0x296FB, size: 0x8, addend: 0x0, symName: __ZNSt3__116allocator_traitsINS_9allocatorINS_12basic_stringIcNS_11char_traitsIcEENS1_IcEEEEEEE8max_sizeB8ue170006IS7_vvEEmRKS7_, symObjAddr: 0x635C, symBinAddr: 0x100007F48, symSize: 0x28 }
  - { offsetInCU: 0x29727, offset: 0x29727, size: 0x8, addend: 0x0, symName: __ZNSt3__19allocatorINS_12basic_stringIcNS_11char_traitsIcEENS0_IcEEEEE17allocate_at_leastB8ue170006Em, symObjAddr: 0x63C0, symBinAddr: 0x100007FAC, symSize: 0x40 }
  - { offsetInCU: 0x2975B, offset: 0x2975B, size: 0x8, addend: 0x0, symName: __ZNSt3__19allocatorINS_12basic_stringIcNS_11char_traitsIcEENS0_IcEEEEE8allocateB8ue170006Em, symObjAddr: 0x6400, symBinAddr: 0x100007FEC, symSize: 0x5C }
  - { offsetInCU: 0x2978F, offset: 0x2978F, size: 0x8, addend: 0x0, symName: __ZNSt3__117__compressed_pairIPNS_12basic_stringIcNS_11char_traitsIcEENS_9allocatorIcEEEENS4_IS6_EEE5firstB8ue170006Ev, symObjAddr: 0x645C, symBinAddr: 0x100008048, symSize: 0x24 }
  - { offsetInCU: 0x297B5, offset: 0x297B5, size: 0x8, addend: 0x0, symName: __ZNSt3__122__compressed_pair_elemIPNS_12basic_stringIcNS_11char_traitsIcEENS_9allocatorIcEEEELi0ELb0EE5__getB8ue170006Ev, symObjAddr: 0x6480, symBinAddr: 0x10000806C, symSize: 0x14 }
  - { offsetInCU: 0x297F7, offset: 0x297F7, size: 0x8, addend: 0x0, symName: __ZNSt3__16vectorINS_12basic_stringIcNS_11char_traitsIcEENS_9allocatorIcEEEENS4_IS6_EEE21_ConstructTransactionC1B8ue170006ERS8_m, symObjAddr: 0x6494, symBinAddr: 0x100008080, symSize: 0x3C }
  - { offsetInCU: 0x2983F, offset: 0x2983F, size: 0x8, addend: 0x0, symName: __ZNSt3__16vectorINS_12basic_stringIcNS_11char_traitsIcEENS_9allocatorIcEEEENS4_IS6_EEE21_ConstructTransactionD1B8ue170006Ev, symObjAddr: 0x6550, symBinAddr: 0x10000813C, symSize: 0x2C }
  - { offsetInCU: 0x29869, offset: 0x29869, size: 0x8, addend: 0x0, symName: __ZNSt3__16vectorINS_12basic_stringIcNS_11char_traitsIcEENS_9allocatorIcEEEENS4_IS6_EEE21_ConstructTransactionC2B8ue170006ERS8_m, symObjAddr: 0x657C, symBinAddr: 0x100008168, symSize: 0x4C }
  - { offsetInCU: 0x298D4, offset: 0x298D4, size: 0x8, addend: 0x0, symName: __ZNSt3__119__unwrap_range_implIPNS_12basic_stringIcNS_11char_traitsIcEENS_9allocatorIcEEEES7_E8__unwrapB8ue170006ES7_S7_, symObjAddr: 0x6758, symBinAddr: 0x100008344, symSize: 0x58 }
  - { offsetInCU: 0x2990B, offset: 0x2990B, size: 0x8, addend: 0x0, symName: __ZNSt3__14pairIPNS_12basic_stringIcNS_11char_traitsIcEENS_9allocatorIcEEEES7_EC1B8ue170006IS7_S7_LPv0EEEOT_OT0_, symObjAddr: 0x67B0, symBinAddr: 0x10000839C, symSize: 0x3C }
  - { offsetInCU: 0x29969, offset: 0x29969, size: 0x8, addend: 0x0, symName: __ZNSt3__14pairIPNS_12basic_stringIcNS_11char_traitsIcEENS_9allocatorIcEEEES7_EC2B8ue170006IS7_S7_LPv0EEEOT_OT0_, symObjAddr: 0x67EC, symBinAddr: 0x1000083D8, symSize: 0x34 }
  - { offsetInCU: 0x299C7, offset: 0x299C7, size: 0x8, addend: 0x0, symName: __ZNSt3__129_AllocatorDestroyRangeReverseINS_9allocatorINS_12basic_stringIcNS_11char_traitsIcEENS1_IcEEEEEEPS6_EC1B8ue170006ERS7_RS8_SB_, symObjAddr: 0x686C, symBinAddr: 0x100008458, symSize: 0x44 }
  - { offsetInCU: 0x29A1E, offset: 0x29A1E, size: 0x8, addend: 0x0, symName: __ZNSt3__116allocator_traitsINS_9allocatorINS_12basic_stringIcNS_11char_traitsIcEENS1_IcEEEEEEE9constructB8ue170006IS6_JRS6_EvvEEvRS7_PT_DpOT0_, symObjAddr: 0x68B0, symBinAddr: 0x10000849C, symSize: 0x30 }
  - { offsetInCU: 0x29A73, offset: 0x29A73, size: 0x8, addend: 0x0, symName: __ZNSt3__128__exception_guard_exceptionsINS_29_AllocatorDestroyRangeReverseINS_9allocatorINS_12basic_stringIcNS_11char_traitsIcEENS2_IcEEEEEEPS7_EEE10__completeB8ue170006Ev, symObjAddr: 0x68E0, symBinAddr: 0x1000084CC, symSize: 0x1C }
  - { offsetInCU: 0x29A99, offset: 0x29A99, size: 0x8, addend: 0x0, symName: __ZNSt3__128__exception_guard_exceptionsINS_29_AllocatorDestroyRangeReverseINS_9allocatorINS_12basic_stringIcNS_11char_traitsIcEENS2_IcEEEEEEPS7_EEED1B8ue170006Ev, symObjAddr: 0x68FC, symBinAddr: 0x1000084E8, symSize: 0x2C }
  - { offsetInCU: 0x29AC3, offset: 0x29AC3, size: 0x8, addend: 0x0, symName: __ZNSt3__128__exception_guard_exceptionsINS_29_AllocatorDestroyRangeReverseINS_9allocatorINS_12basic_stringIcNS_11char_traitsIcEENS2_IcEEEEEEPS7_EEEC1B8ue170006ESA_, symObjAddr: 0x6928, symBinAddr: 0x100008514, symSize: 0x34 }
  - { offsetInCU: 0x29AFC, offset: 0x29AFC, size: 0x8, addend: 0x0, symName: __ZNSt3__128__exception_guard_exceptionsINS_29_AllocatorDestroyRangeReverseINS_9allocatorINS_12basic_stringIcNS_11char_traitsIcEENS2_IcEEEEEEPS7_EEEC2B8ue170006ESA_, symObjAddr: 0x695C, symBinAddr: 0x100008548, symSize: 0x30 }
  - { offsetInCU: 0x29B35, offset: 0x29B35, size: 0x8, addend: 0x0, symName: __ZNSt3__129_AllocatorDestroyRangeReverseINS_9allocatorINS_12basic_stringIcNS_11char_traitsIcEENS1_IcEEEEEEPS6_EC2B8ue170006ERS7_RS8_SB_, symObjAddr: 0x698C, symBinAddr: 0x100008578, symSize: 0x38 }
  - { offsetInCU: 0x29B8C, offset: 0x29B8C, size: 0x8, addend: 0x0, symName: __ZNSt3__128__exception_guard_exceptionsINS_29_AllocatorDestroyRangeReverseINS_9allocatorINS_12basic_stringIcNS_11char_traitsIcEENS2_IcEEEEEEPS7_EEED2B8ue170006Ev, symObjAddr: 0x6A00, symBinAddr: 0x1000085EC, symSize: 0x50 }
  - { offsetInCU: 0x29BB6, offset: 0x29BB6, size: 0x8, addend: 0x0, symName: __ZNKSt3__129_AllocatorDestroyRangeReverseINS_9allocatorINS_12basic_stringIcNS_11char_traitsIcEENS1_IcEEEEEEPS6_EclB8ue170006Ev, symObjAddr: 0x6A50, symBinAddr: 0x10000863C, symSize: 0x68 }
  - { offsetInCU: 0x29BDC, offset: 0x29BDC, size: 0x8, addend: 0x0, symName: __ZNSt3__116reverse_iteratorIPNS_12basic_stringIcNS_11char_traitsIcEENS_9allocatorIcEEEEEC1B8ue170006ES7_, symObjAddr: 0x6B28, symBinAddr: 0x100008714, symSize: 0x34 }
  - { offsetInCU: 0x29C14, offset: 0x29C14, size: 0x8, addend: 0x0, symName: __ZNSt3__116reverse_iteratorIPNS_12basic_stringIcNS_11char_traitsIcEENS_9allocatorIcEEEEEppB8ue170006Ev, symObjAddr: 0x6BC8, symBinAddr: 0x1000087B4, symSize: 0x20 }
  - { offsetInCU: 0x29C3A, offset: 0x29C3A, size: 0x8, addend: 0x0, symName: __ZNKSt3__116reverse_iteratorIPNS_12basic_stringIcNS_11char_traitsIcEENS_9allocatorIcEEEEE4baseB8ue170006Ev, symObjAddr: 0x6BE8, symBinAddr: 0x1000087D4, symSize: 0x18 }
  - { offsetInCU: 0x29C66, offset: 0x29C66, size: 0x8, addend: 0x0, symName: __ZNSt3__119__to_address_helperINS_16reverse_iteratorIPNS_12basic_stringIcNS_11char_traitsIcEENS_9allocatorIcEEEEEEvE6__callB8ue170006ERKS9_, symObjAddr: 0x6C00, symBinAddr: 0x1000087EC, symSize: 0x38 }
  - { offsetInCU: 0x29C89, offset: 0x29C89, size: 0x8, addend: 0x0, symName: __ZNKSt3__116reverse_iteratorIPNS_12basic_stringIcNS_11char_traitsIcEENS_9allocatorIcEEEEEptB8ue170006Ev, symObjAddr: 0x6C38, symBinAddr: 0x100008824, symSize: 0x2C }
  - { offsetInCU: 0x29CAF, offset: 0x29CAF, size: 0x8, addend: 0x0, symName: __ZNSt3__116reverse_iteratorIPNS_12basic_stringIcNS_11char_traitsIcEENS_9allocatorIcEEEEEC2B8ue170006ES7_, symObjAddr: 0x6D08, symBinAddr: 0x1000088F4, symSize: 0x28 }
  - { offsetInCU: 0x29CE7, offset: 0x29CE7, size: 0x8, addend: 0x0, symName: __ZNSt3__118__unwrap_iter_implIPNS_12basic_stringIcNS_11char_traitsIcEENS_9allocatorIcEEEELb1EE8__unwrapB8ue170006ES7_, symObjAddr: 0x6D30, symBinAddr: 0x10000891C, symSize: 0x24 }
  - { offsetInCU: 0x29D0A, offset: 0x29D0A, size: 0x8, addend: 0x0, symName: __ZNSt3__118__unwrap_iter_implIPNS_12basic_stringIcNS_11char_traitsIcEENS_9allocatorIcEEEELb1EE8__rewrapB8ue170006ES7_S7_, symObjAddr: 0x6D54, symBinAddr: 0x100008940, symSize: 0x58 }
  - { offsetInCU: 0x29D3B, offset: 0x29D3B, size: 0x8, addend: 0x0, symName: __ZNSt3__16vectorINS_12basic_stringIcNS_11char_traitsIcEENS_9allocatorIcEEEENS4_IS6_EEE21_ConstructTransactionD2B8ue170006Ev, symObjAddr: 0x6DAC, symBinAddr: 0x100008998, symSize: 0x20 }
  - { offsetInCU: 0x29D65, offset: 0x29D65, size: 0x8, addend: 0x0, symName: __ZNSt3__128__exception_guard_exceptionsINS_6vectorINS_12basic_stringIcNS_11char_traitsIcEENS_9allocatorIcEEEENS5_IS7_EEE16__destroy_vectorEED2B8ue170006Ev, symObjAddr: 0x6DCC, symBinAddr: 0x1000089B8, symSize: 0x48 }
  - { offsetInCU: 0x29D8F, offset: 0x29D8F, size: 0x8, addend: 0x0, symName: __ZN4Line11processLineERKNSt3__112basic_stringIcNS0_11char_traitsIcEENS0_9allocatorIcEEEE, symObjAddr: 0x6E14, symBinAddr: 0x100008A00, symSize: 0x1AC }
  - { offsetInCU: 0x29E20, offset: 0x29E20, size: 0x8, addend: 0x0, symName: __ZNKSt3__112basic_stringIcNS_11char_traitsIcEENS_9allocatorIcEEE5beginB8ue170006Ev, symObjAddr: 0x6FC0, symBinAddr: 0x100008BAC, symSize: 0x4C }
  - { offsetInCU: 0x29E46, offset: 0x29E46, size: 0x8, addend: 0x0, symName: __ZNKSt3__112basic_stringIcNS_11char_traitsIcEENS_9allocatorIcEEE3endB8ue170006Ev, symObjAddr: 0x700C, symBinAddr: 0x100008BF8, symSize: 0x54 }
  - { offsetInCU: 0x29E6C, offset: 0x29E6C, size: 0x8, addend: 0x0, symName: __ZNKSt3__111__wrap_iterIPKcEdeB8ue170006Ev, symObjAddr: 0x7094, symBinAddr: 0x100008C80, symSize: 0x18 }
  - { offsetInCU: 0x29E92, offset: 0x29E92, size: 0x8, addend: 0x0, symName: __ZNSt3__16vectorINS_12basic_stringIcNS_11char_traitsIcEENS_9allocatorIcEEEENS4_IS6_EEE9push_backB8ue170006ERKS6_, symObjAddr: 0x70AC, symBinAddr: 0x100008C98, symSize: 0x6C }
  - { offsetInCU: 0x29EC9, offset: 0x29EC9, size: 0x8, addend: 0x0, symName: __ZNSt3__112basic_stringIcNS_11char_traitsIcEENS_9allocatorIcEEEaSB8ue170006EPKc, symObjAddr: 0x7118, symBinAddr: 0x100008D04, symSize: 0x2C }
  - { offsetInCU: 0x29EFE, offset: 0x29EFE, size: 0x8, addend: 0x0, symName: __ZNSt3__112basic_stringIcNS_11char_traitsIcEENS_9allocatorIcEEEpLB8ue170006Ec, symObjAddr: 0x7144, symBinAddr: 0x100008D30, symSize: 0x34 }
  - { offsetInCU: 0x29F33, offset: 0x29F33, size: 0x8, addend: 0x0, symName: __ZNSt3__111__wrap_iterIPKcEppB8ue170006Ev, symObjAddr: 0x7178, symBinAddr: 0x100008D64, symSize: 0x20 }
  - { offsetInCU: 0x29F59, offset: 0x29F59, size: 0x8, addend: 0x0, symName: __ZN4Line7setLineENSt3__16vectorINS0_12basic_stringIcNS0_11char_traitsIcEENS0_9allocatorIcEEEENS5_IS7_EEEEcb, symObjAddr: 0x7198, symBinAddr: 0x100008D84, symSize: 0x74 }
  - { offsetInCU: 0x29FAA, offset: 0x29FAA, size: 0x8, addend: 0x0, symName: __ZNKSt3__112basic_stringIcNS_11char_traitsIcEENS_9allocatorIcEEE21__make_const_iteratorB8ue170006EPKc, symObjAddr: 0x720C, symBinAddr: 0x100008DF8, symSize: 0x30 }
  - { offsetInCU: 0x29FDF, offset: 0x29FDF, size: 0x8, addend: 0x0, symName: __ZNKSt3__112basic_stringIcNS_11char_traitsIcEENS_9allocatorIcEEE13__get_pointerB8ue170006Ev, symObjAddr: 0x723C, symBinAddr: 0x100008E28, symSize: 0x54 }
  - { offsetInCU: 0x2A005, offset: 0x2A005, size: 0x8, addend: 0x0, symName: __ZNSt3__111__wrap_iterIPKcEC1B8ue170006ES2_, symObjAddr: 0x7290, symBinAddr: 0x100008E7C, symSize: 0x34 }
  - { offsetInCU: 0x2A03D, offset: 0x2A03D, size: 0x8, addend: 0x0, symName: __ZNSt3__111__wrap_iterIPKcEC2B8ue170006ES2_, symObjAddr: 0x72C4, symBinAddr: 0x100008EB0, symSize: 0x20 }
  - { offsetInCU: 0x2A075, offset: 0x2A075, size: 0x8, addend: 0x0, symName: __ZNKSt3__112basic_stringIcNS_11char_traitsIcEENS_9allocatorIcEEE9__is_longB8ue170006Ev, symObjAddr: 0x72E4, symBinAddr: 0x100008ED0, symSize: 0x38 }
  - { offsetInCU: 0x2A09B, offset: 0x2A09B, size: 0x8, addend: 0x0, symName: __ZNKSt3__112basic_stringIcNS_11char_traitsIcEENS_9allocatorIcEEE18__get_long_pointerB8ue170006Ev, symObjAddr: 0x731C, symBinAddr: 0x100008F08, symSize: 0x28 }
  - { offsetInCU: 0x2A0C1, offset: 0x2A0C1, size: 0x8, addend: 0x0, symName: __ZNKSt3__112basic_stringIcNS_11char_traitsIcEENS_9allocatorIcEEE19__get_short_pointerB8ue170006Ev, symObjAddr: 0x7344, symBinAddr: 0x100008F30, symSize: 0x28 }
  - { offsetInCU: 0x2A0E7, offset: 0x2A0E7, size: 0x8, addend: 0x0, symName: __ZNKSt3__117__compressed_pairINS_12basic_stringIcNS_11char_traitsIcEENS_9allocatorIcEEE5__repES5_E5firstB8ue170006Ev, symObjAddr: 0x736C, symBinAddr: 0x100008F58, symSize: 0x24 }
  - { offsetInCU: 0x2A10D, offset: 0x2A10D, size: 0x8, addend: 0x0, symName: __ZNKSt3__122__compressed_pair_elemINS_12basic_stringIcNS_11char_traitsIcEENS_9allocatorIcEEE5__repELi0ELb0EE5__getB8ue170006Ev, symObjAddr: 0x7390, symBinAddr: 0x100008F7C, symSize: 0x14 }
  - { offsetInCU: 0x2A133, offset: 0x2A133, size: 0x8, addend: 0x0, symName: __ZNSt3__114pointer_traitsIPKcE10pointer_toB8ue170006ERS1_, symObjAddr: 0x73A4, symBinAddr: 0x100008F90, symSize: 0x14 }
  - { offsetInCU: 0x2A156, offset: 0x2A156, size: 0x8, addend: 0x0, symName: __ZNKSt3__112basic_stringIcNS_11char_traitsIcEENS_9allocatorIcEEE4sizeB8ue170006Ev, symObjAddr: 0x73B8, symBinAddr: 0x100008FA4, symSize: 0x54 }
  - { offsetInCU: 0x2A17C, offset: 0x2A17C, size: 0x8, addend: 0x0, symName: __ZNKSt3__112basic_stringIcNS_11char_traitsIcEENS_9allocatorIcEEE15__get_long_sizeB8ue170006Ev, symObjAddr: 0x740C, symBinAddr: 0x100008FF8, symSize: 0x28 }
  - { offsetInCU: 0x2A1A2, offset: 0x2A1A2, size: 0x8, addend: 0x0, symName: __ZNKSt3__112basic_stringIcNS_11char_traitsIcEENS_9allocatorIcEEE16__get_short_sizeB8ue170006Ev, symObjAddr: 0x7434, symBinAddr: 0x100009020, symSize: 0x34 }
  - { offsetInCU: 0x2A1C8, offset: 0x2A1C8, size: 0x8, addend: 0x0, symName: __ZNKSt3__111__wrap_iterIPKcE4baseB8ue170006Ev, symObjAddr: 0x74B0, symBinAddr: 0x10000909C, symSize: 0x18 }
  - { offsetInCU: 0x2A1EE, offset: 0x2A1EE, size: 0x8, addend: 0x0, symName: __ZNSt3__16vectorINS_12basic_stringIcNS_11char_traitsIcEENS_9allocatorIcEEEENS4_IS6_EEE22__construct_one_at_endB8ue170006IJRKS6_EEEvDpOT_, symObjAddr: 0x74C8, symBinAddr: 0x1000090B4, symSize: 0x90 }
  - { offsetInCU: 0x2A23D, offset: 0x2A23D, size: 0x8, addend: 0x0, symName: __ZNSt3__16vectorINS_12basic_stringIcNS_11char_traitsIcEENS_9allocatorIcEEEENS4_IS6_EEE21__push_back_slow_pathIRKS6_EEvOT_, symObjAddr: 0x7558, symBinAddr: 0x100009144, symSize: 0xD8 }
  - { offsetInCU: 0x2A29B, offset: 0x2A29B, size: 0x8, addend: 0x0, symName: __ZNSt3__116allocator_traitsINS_9allocatorINS_12basic_stringIcNS_11char_traitsIcEENS1_IcEEEEEEE9constructB8ue170006IS6_JRKS6_EvvEEvRS7_PT_DpOT0_, symObjAddr: 0x7630, symBinAddr: 0x10000921C, symSize: 0x30 }
  - { offsetInCU: 0x2A2F0, offset: 0x2A2F0, size: 0x8, addend: 0x0, symName: __ZNKSt3__16vectorINS_12basic_stringIcNS_11char_traitsIcEENS_9allocatorIcEEEENS4_IS6_EEE11__recommendB8ue170006Em, symObjAddr: 0x769C, symBinAddr: 0x100009288, symSize: 0xB4 }
  - { offsetInCU: 0x2A345, offset: 0x2A345, size: 0x8, addend: 0x0, symName: __ZNSt3__114__split_bufferINS_12basic_stringIcNS_11char_traitsIcEENS_9allocatorIcEEEERNS4_IS6_EEEC1EmmS8_, symObjAddr: 0x7750, symBinAddr: 0x10000933C, symSize: 0x44 }
  - { offsetInCU: 0x2A39B, offset: 0x2A39B, size: 0x8, addend: 0x0, symName: __ZNSt3__114__split_bufferINS_12basic_stringIcNS_11char_traitsIcEENS_9allocatorIcEEEERNS4_IS6_EEED1Ev, symObjAddr: 0x78A4, symBinAddr: 0x100009490, symSize: 0x2C }
  - { offsetInCU: 0x2A3C7, offset: 0x2A3C7, size: 0x8, addend: 0x0, symName: __ZNSt3__114__split_bufferINS_12basic_stringIcNS_11char_traitsIcEENS_9allocatorIcEEEERNS4_IS6_EEEC2EmmS8_, symObjAddr: 0x78D0, symBinAddr: 0x1000094BC, symSize: 0xE0 }
  - { offsetInCU: 0x2A43A, offset: 0x2A43A, size: 0x8, addend: 0x0, symName: __ZNSt3__117__compressed_pairIPNS_12basic_stringIcNS_11char_traitsIcEENS_9allocatorIcEEEERNS4_IS6_EEEC1B8ue170006IDnS9_EEOT_OT0_, symObjAddr: 0x79B0, symBinAddr: 0x10000959C, symSize: 0x3C }
  - { offsetInCU: 0x2A492, offset: 0x2A492, size: 0x8, addend: 0x0, symName: __ZNSt3__114__split_bufferINS_12basic_stringIcNS_11char_traitsIcEENS_9allocatorIcEEEERNS4_IS6_EEE7__allocB8ue170006Ev, symObjAddr: 0x79EC, symBinAddr: 0x1000095D8, symSize: 0x28 }
  - { offsetInCU: 0x2A4B8, offset: 0x2A4B8, size: 0x8, addend: 0x0, symName: __ZNSt3__114__split_bufferINS_12basic_stringIcNS_11char_traitsIcEENS_9allocatorIcEEEERNS4_IS6_EEE9__end_capB8ue170006Ev, symObjAddr: 0x7A14, symBinAddr: 0x100009600, symSize: 0x28 }
  - { offsetInCU: 0x2A4DE, offset: 0x2A4DE, size: 0x8, addend: 0x0, symName: __ZNSt3__117__compressed_pairIPNS_12basic_stringIcNS_11char_traitsIcEENS_9allocatorIcEEEERNS4_IS6_EEEC2B8ue170006IDnS9_EEOT_OT0_, symObjAddr: 0x7A3C, symBinAddr: 0x100009628, symSize: 0x48 }
  - { offsetInCU: 0x2A536, offset: 0x2A536, size: 0x8, addend: 0x0, symName: __ZNSt3__122__compressed_pair_elemIRNS_9allocatorINS_12basic_stringIcNS_11char_traitsIcEENS1_IcEEEEEELi1ELb0EEC2B8ue170006IS8_vEEOT_, symObjAddr: 0x7A84, symBinAddr: 0x100009670, symSize: 0x20 }
  - { offsetInCU: 0x2A578, offset: 0x2A578, size: 0x8, addend: 0x0, symName: __ZNSt3__117__compressed_pairIPNS_12basic_stringIcNS_11char_traitsIcEENS_9allocatorIcEEEERNS4_IS6_EEE6secondB8ue170006Ev, symObjAddr: 0x7AA4, symBinAddr: 0x100009690, symSize: 0x28 }
  - { offsetInCU: 0x2A59E, offset: 0x2A59E, size: 0x8, addend: 0x0, symName: __ZNSt3__122__compressed_pair_elemIRNS_9allocatorINS_12basic_stringIcNS_11char_traitsIcEENS1_IcEEEEEELi1ELb0EE5__getB8ue170006Ev, symObjAddr: 0x7ACC, symBinAddr: 0x1000096B8, symSize: 0x18 }
  - { offsetInCU: 0x2A5C4, offset: 0x2A5C4, size: 0x8, addend: 0x0, symName: __ZNSt3__117__compressed_pairIPNS_12basic_stringIcNS_11char_traitsIcEENS_9allocatorIcEEEERNS4_IS6_EEE5firstB8ue170006Ev, symObjAddr: 0x7AE4, symBinAddr: 0x1000096D0, symSize: 0x24 }
  - { offsetInCU: 0x2A5EA, offset: 0x2A5EA, size: 0x8, addend: 0x0, symName: __ZNSt3__129_AllocatorDestroyRangeReverseINS_9allocatorINS_12basic_stringIcNS_11char_traitsIcEENS1_IcEEEEEENS_16reverse_iteratorIPS6_EEEC1B8ue170006ERS7_RSA_SD_, symObjAddr: 0x7CB4, symBinAddr: 0x1000098A0, symSize: 0x44 }
  - { offsetInCU: 0x2A647, offset: 0x2A647, size: 0x8, addend: 0x0, symName: __ZNSt3__116allocator_traitsINS_9allocatorINS_12basic_stringIcNS_11char_traitsIcEENS1_IcEEEEEEE9constructB8ue170006IS6_JS6_EvvEEvRS7_PT_DpOT0_, symObjAddr: 0x7CF8, symBinAddr: 0x1000098E4, symSize: 0x30 }
  - { offsetInCU: 0x2A69C, offset: 0x2A69C, size: 0x8, addend: 0x0, symName: __ZNKSt3__116reverse_iteratorIPNS_12basic_stringIcNS_11char_traitsIcEENS_9allocatorIcEEEEEdeB8ue170006Ev, symObjAddr: 0x7D28, symBinAddr: 0x100009914, symSize: 0x28 }
  - { offsetInCU: 0x2A6D0, offset: 0x2A6D0, size: 0x8, addend: 0x0, symName: __ZNSt3__128__exception_guard_exceptionsINS_29_AllocatorDestroyRangeReverseINS_9allocatorINS_12basic_stringIcNS_11char_traitsIcEENS2_IcEEEEEENS_16reverse_iteratorIPS7_EEEEE10__completeB8ue170006Ev, symObjAddr: 0x7D50, symBinAddr: 0x10000993C, symSize: 0x1C }
  - { offsetInCU: 0x2A6F6, offset: 0x2A6F6, size: 0x8, addend: 0x0, symName: __ZNSt3__128__exception_guard_exceptionsINS_29_AllocatorDestroyRangeReverseINS_9allocatorINS_12basic_stringIcNS_11char_traitsIcEENS2_IcEEEEEENS_16reverse_iteratorIPS7_EEEEED1B8ue170006Ev, symObjAddr: 0x7D6C, symBinAddr: 0x100009958, symSize: 0x2C }
  - { offsetInCU: 0x2A720, offset: 0x2A720, size: 0x8, addend: 0x0, symName: __ZNSt3__128__exception_guard_exceptionsINS_29_AllocatorDestroyRangeReverseINS_9allocatorINS_12basic_stringIcNS_11char_traitsIcEENS2_IcEEEEEENS_16reverse_iteratorIPS7_EEEEEC1B8ue170006ESC_, symObjAddr: 0x7D98, symBinAddr: 0x100009984, symSize: 0x34 }
  - { offsetInCU: 0x2A759, offset: 0x2A759, size: 0x8, addend: 0x0, symName: __ZNSt3__128__exception_guard_exceptionsINS_29_AllocatorDestroyRangeReverseINS_9allocatorINS_12basic_stringIcNS_11char_traitsIcEENS2_IcEEEEEENS_16reverse_iteratorIPS7_EEEEEC2B8ue170006ESC_, symObjAddr: 0x7DCC, symBinAddr: 0x1000099B8, symSize: 0x30 }
  - { offsetInCU: 0x2A792, offset: 0x2A792, size: 0x8, addend: 0x0, symName: __ZNSt3__129_AllocatorDestroyRangeReverseINS_9allocatorINS_12basic_stringIcNS_11char_traitsIcEENS1_IcEEEEEENS_16reverse_iteratorIPS6_EEEC2B8ue170006ERS7_RSA_SD_, symObjAddr: 0x7DFC, symBinAddr: 0x1000099E8, symSize: 0x38 }
  - { offsetInCU: 0x2A7E9, offset: 0x2A7E9, size: 0x8, addend: 0x0, symName: __ZNSt3__112basic_stringIcNS_11char_traitsIcEENS_9allocatorIcEEEC1B8ue170006EOS5_, symObjAddr: 0x7E70, symBinAddr: 0x100009A5C, symSize: 0x34 }
  - { offsetInCU: 0x2A822, offset: 0x2A822, size: 0x8, addend: 0x0, symName: __ZNSt3__112basic_stringIcNS_11char_traitsIcEENS_9allocatorIcEEEC2B8ue170006EOS5_, symObjAddr: 0x7EA4, symBinAddr: 0x100009A90, symSize: 0x50 }
  - { offsetInCU: 0x2A85B, offset: 0x2A85B, size: 0x8, addend: 0x0, symName: __ZNSt3__112basic_stringIcNS_11char_traitsIcEENS_9allocatorIcEEE14__default_initB8ue170006Ev, symObjAddr: 0x7EF4, symBinAddr: 0x100009AE0, symSize: 0x40 }
  - { offsetInCU: 0x2A881, offset: 0x2A881, size: 0x8, addend: 0x0, symName: __ZNSt3__117__compressed_pairINS_12basic_stringIcNS_11char_traitsIcEENS_9allocatorIcEEE5__repES5_E5firstB8ue170006Ev, symObjAddr: 0x7F34, symBinAddr: 0x100009B20, symSize: 0x24 }
  - { offsetInCU: 0x2A8A7, offset: 0x2A8A7, size: 0x8, addend: 0x0, symName: __ZNSt3__122__compressed_pair_elemINS_12basic_stringIcNS_11char_traitsIcEENS_9allocatorIcEEE5__repELi0ELb0EE5__getB8ue170006Ev, symObjAddr: 0x7F58, symBinAddr: 0x100009B44, symSize: 0x14 }
  - { offsetInCU: 0x2A8CD, offset: 0x2A8CD, size: 0x8, addend: 0x0, symName: __ZNSt3__128__exception_guard_exceptionsINS_29_AllocatorDestroyRangeReverseINS_9allocatorINS_12basic_stringIcNS_11char_traitsIcEENS2_IcEEEEEENS_16reverse_iteratorIPS7_EEEEED2B8ue170006Ev, symObjAddr: 0x7F6C, symBinAddr: 0x100009B58, symSize: 0x50 }
  - { offsetInCU: 0x2A8F7, offset: 0x2A8F7, size: 0x8, addend: 0x0, symName: __ZNKSt3__129_AllocatorDestroyRangeReverseINS_9allocatorINS_12basic_stringIcNS_11char_traitsIcEENS1_IcEEEEEENS_16reverse_iteratorIPS6_EEEclB8ue170006Ev, symObjAddr: 0x7FBC, symBinAddr: 0x100009BA8, symSize: 0xB4 }
  - { offsetInCU: 0x2A91E, offset: 0x2A91E, size: 0x8, addend: 0x0, symName: __ZNSt3__116reverse_iteratorINS0_IPNS_12basic_stringIcNS_11char_traitsIcEENS_9allocatorIcEEEEEEEC1B8ue170006ES8_, symObjAddr: 0x80E0, symBinAddr: 0x100009CCC, symSize: 0x3C }
  - { offsetInCU: 0x2A956, offset: 0x2A956, size: 0x8, addend: 0x0, symName: __ZNSt3__116reverse_iteratorINS0_IPNS_12basic_stringIcNS_11char_traitsIcEENS_9allocatorIcEEEEEEEppB8ue170006Ev, symObjAddr: 0x81A0, symBinAddr: 0x100009D8C, symSize: 0x30 }
  - { offsetInCU: 0x2A97C, offset: 0x2A97C, size: 0x8, addend: 0x0, symName: __ZNKSt3__116reverse_iteratorINS0_IPNS_12basic_stringIcNS_11char_traitsIcEENS_9allocatorIcEEEEEEE4baseB8ue170006Ev, symObjAddr: 0x81D0, symBinAddr: 0x100009DBC, symSize: 0x24 }
  - { offsetInCU: 0x2A9A8, offset: 0x2A9A8, size: 0x8, addend: 0x0, symName: __ZNSt3__119__to_address_helperINS_16reverse_iteratorINS1_IPNS_12basic_stringIcNS_11char_traitsIcEENS_9allocatorIcEEEEEEEEvE6__callB8ue170006ERKSA_, symObjAddr: 0x81F4, symBinAddr: 0x100009DE0, symSize: 0x38 }
  - { offsetInCU: 0x2A9CB, offset: 0x2A9CB, size: 0x8, addend: 0x0, symName: __ZNKSt3__116reverse_iteratorINS0_IPNS_12basic_stringIcNS_11char_traitsIcEENS_9allocatorIcEEEEEEEptB8ue170006Ev, symObjAddr: 0x822C, symBinAddr: 0x100009E18, symSize: 0x4C }
  - { offsetInCU: 0x2A9F1, offset: 0x2A9F1, size: 0x8, addend: 0x0, symName: __ZNSt3__116reverse_iteratorIPNS_12basic_stringIcNS_11char_traitsIcEENS_9allocatorIcEEEEEpLB8ue170006El, symObjAddr: 0x8328, symBinAddr: 0x100009F14, symSize: 0x30 }
  - { offsetInCU: 0x2AA25, offset: 0x2AA25, size: 0x8, addend: 0x0, symName: __ZNSt3__116reverse_iteratorIPNS_12basic_stringIcNS_11char_traitsIcEENS_9allocatorIcEEEEEmmB8ue170006Ev, symObjAddr: 0x8358, symBinAddr: 0x100009F44, symSize: 0x20 }
  - { offsetInCU: 0x2AA4B, offset: 0x2AA4B, size: 0x8, addend: 0x0, symName: __ZNSt3__116reverse_iteratorINS0_IPNS_12basic_stringIcNS_11char_traitsIcEENS_9allocatorIcEEEEEEEC2B8ue170006ES8_, symObjAddr: 0x8378, symBinAddr: 0x100009F64, symSize: 0x2C }
  - { offsetInCU: 0x2AA83, offset: 0x2AA83, size: 0x8, addend: 0x0, symName: __ZNSt3__114__split_bufferINS_12basic_stringIcNS_11char_traitsIcEENS_9allocatorIcEEEERNS4_IS6_EEED2Ev, symObjAddr: 0x83A4, symBinAddr: 0x100009F90, symSize: 0x8C }
  - { offsetInCU: 0x2AAAF, offset: 0x2AAAF, size: 0x8, addend: 0x0, symName: __ZNSt3__114__split_bufferINS_12basic_stringIcNS_11char_traitsIcEENS_9allocatorIcEEEERNS4_IS6_EEE5clearB8ue170006Ev, symObjAddr: 0x8430, symBinAddr: 0x10000A01C, symSize: 0x28 }
  - { offsetInCU: 0x2AAD5, offset: 0x2AAD5, size: 0x8, addend: 0x0, symName: __ZNKSt3__114__split_bufferINS_12basic_stringIcNS_11char_traitsIcEENS_9allocatorIcEEEERNS4_IS6_EEE8capacityB8ue170006Ev, symObjAddr: 0x8458, symBinAddr: 0x10000A044, symSize: 0x40 }
  - { offsetInCU: 0x2AAFB, offset: 0x2AAFB, size: 0x8, addend: 0x0, symName: __ZNSt3__114__split_bufferINS_12basic_stringIcNS_11char_traitsIcEENS_9allocatorIcEEEERNS4_IS6_EEE17__destruct_at_endB8ue170006EPS6_, symObjAddr: 0x8498, symBinAddr: 0x10000A084, symSize: 0x2C }
  - { offsetInCU: 0x2AB2F, offset: 0x2AB2F, size: 0x8, addend: 0x0, symName: __ZNSt3__114__split_bufferINS_12basic_stringIcNS_11char_traitsIcEENS_9allocatorIcEEEERNS4_IS6_EEE17__destruct_at_endB8ue170006EPS6_NS_17integral_constantIbLb0EEE, symObjAddr: 0x84C4, symBinAddr: 0x10000A0B0, symSize: 0x80 }
  - { offsetInCU: 0x2AB6F, offset: 0x2AB6F, size: 0x8, addend: 0x0, symName: __ZNKSt3__114__split_bufferINS_12basic_stringIcNS_11char_traitsIcEENS_9allocatorIcEEEERNS4_IS6_EEE9__end_capB8ue170006Ev, symObjAddr: 0x8544, symBinAddr: 0x10000A130, symSize: 0x28 }
  - { offsetInCU: 0x2AB95, offset: 0x2AB95, size: 0x8, addend: 0x0, symName: __ZNKSt3__117__compressed_pairIPNS_12basic_stringIcNS_11char_traitsIcEENS_9allocatorIcEEEERNS4_IS6_EEE5firstB8ue170006Ev, symObjAddr: 0x856C, symBinAddr: 0x10000A158, symSize: 0x24 }
  - { offsetInCU: 0x2ABBB, offset: 0x2ABBB, size: 0x8, addend: 0x0, symName: __ZNSt3__16vectorINS_12basic_stringIcNS_11char_traitsIcEENS_9allocatorIcEEEENS4_IS6_EEEaSB8ue170006ERKS8_, symObjAddr: 0x8590, symBinAddr: 0x10000A17C, symSize: 0x68 }
  - { offsetInCU: 0x2ABF2, offset: 0x2ABF2, size: 0x8, addend: 0x0, symName: __ZNSt3__16vectorINS_12basic_stringIcNS_11char_traitsIcEENS_9allocatorIcEEEENS4_IS6_EEE19__copy_assign_allocB8ue170006ERKS8_, symObjAddr: 0x85F8, symBinAddr: 0x10000A1E4, symSize: 0x2C }
  - { offsetInCU: 0x2AC27, offset: 0x2AC27, size: 0x8, addend: 0x0, symName: __ZNSt3__16vectorINS_12basic_stringIcNS_11char_traitsIcEENS_9allocatorIcEEEENS4_IS6_EEE6assignIPS6_Li0EEEvT_SB_, symObjAddr: 0x8624, symBinAddr: 0x10000A210, symSize: 0x5C }
  - { offsetInCU: 0x2AC7C, offset: 0x2AC7C, size: 0x8, addend: 0x0, symName: __ZNSt3__16vectorINS_12basic_stringIcNS_11char_traitsIcEENS_9allocatorIcEEEENS4_IS6_EEE19__copy_assign_allocB8ue170006ERKS8_NS_17integral_constantIbLb0EEE, symObjAddr: 0x8680, symBinAddr: 0x10000A26C, symSize: 0x14 }
  - { offsetInCU: 0x2ACBA, offset: 0x2ACBA, size: 0x8, addend: 0x0, symName: __ZNSt3__16vectorINS_12basic_stringIcNS_11char_traitsIcEENS_9allocatorIcEEEENS4_IS6_EEE18__assign_with_sizeB8ue170006IPS6_SA_EEvT_T0_l, symObjAddr: 0x8694, symBinAddr: 0x10000A280, symSize: 0x164 }
  - { offsetInCU: 0x2AD6A, offset: 0x2AD6A, size: 0x8, addend: 0x0, symName: __ZNSt3__16vectorINS_12basic_stringIcNS_11char_traitsIcEENS_9allocatorIcEEEENS4_IS6_EEE17__destruct_at_endB8ue170006EPS6_, symObjAddr: 0x88DC, symBinAddr: 0x10000A4C8, symSize: 0x4C }
  - { offsetInCU: 0x2ADAE, offset: 0x2ADAE, size: 0x8, addend: 0x0, symName: __ZNSt3__16vectorINS_12basic_stringIcNS_11char_traitsIcEENS_9allocatorIcEEEENS4_IS6_EEE13__vdeallocateEv, symObjAddr: 0x8928, symBinAddr: 0x10000A514, symSize: 0x94 }
  - { offsetInCU: 0x2ADE1, offset: 0x2ADE1, size: 0x8, addend: 0x0, symName: __ZNKSt3__111__copy_loopINS_17_ClassicAlgPolicyEEclB8ue170006IPNS_12basic_stringIcNS_11char_traitsIcEENS_9allocatorIcEEEESA_SA_EENS_4pairIT_T1_EESC_T0_SD_, symObjAddr: 0x8AB4, symBinAddr: 0x10000A6A0, symSize: 0x88 }
  - { offsetInCU: 0x2AE4C, offset: 0x2AE4C, size: 0x8, addend: 0x0, symName: __ZNSt3__119__unwrap_range_implIPNS_12basic_stringIcNS_11char_traitsIcEENS_9allocatorIcEEEES7_E8__rewrapB8ue170006ES7_S7_, symObjAddr: 0x8BA0, symBinAddr: 0x10000A78C, symSize: 0x2C }
  - { offsetInCU: 0x2AE7D, offset: 0x2AE7D, size: 0x8, addend: 0x0, symName: __ZNKSt3__16vectorINS_12basic_stringIcNS_11char_traitsIcEENS_9allocatorIcEEEENS4_IS6_EEE17__annotate_shrinkB8ue170006Em, symObjAddr: 0x8BCC, symBinAddr: 0x10000A7B8, symSize: 0xD0 }
  - { offsetInCU: 0x2AEB2, offset: 0x2AEB2, size: 0x8, addend: 0x0, symName: __ZNSt3__16vectorINS_12basic_stringIcNS_11char_traitsIcEENS_9allocatorIcEEEENS4_IS6_EEE5clearB8ue170006Ev, symObjAddr: 0x8C9C, symBinAddr: 0x10000A888, symSize: 0x44 }
  - { offsetInCU: 0x2AEE7, offset: 0x2AEE7, size: 0x8, addend: 0x0, symName: __ZNSt3__16vectorI4LineNS_9allocatorIS1_EEE9__end_capB8ue170006Ev, symObjAddr: 0x8D08, symBinAddr: 0x10000A8F4, symSize: 0x28 }
  - { offsetInCU: 0x2AF13, offset: 0x2AF13, size: 0x8, addend: 0x0, symName: __ZNSt3__16vectorI4LineNS_9allocatorIS1_EEE22__construct_one_at_endB8ue170006IJRKS1_EEEvDpOT_, symObjAddr: 0x8D30, symBinAddr: 0x10000A91C, symSize: 0x90 }
  - { offsetInCU: 0x2AF62, offset: 0x2AF62, size: 0x8, addend: 0x0, symName: __ZNSt3__16vectorI4LineNS_9allocatorIS1_EEE21__push_back_slow_pathIRKS1_EEvOT_, symObjAddr: 0x8DC0, symBinAddr: 0x10000A9AC, symSize: 0xD8 }
  - { offsetInCU: 0x2AFC0, offset: 0x2AFC0, size: 0x8, addend: 0x0, symName: __ZNSt3__117__compressed_pairIP4LineNS_9allocatorIS1_EEE5firstB8ue170006Ev, symObjAddr: 0x8E98, symBinAddr: 0x10000AA84, symSize: 0x24 }
  - { offsetInCU: 0x2AFE6, offset: 0x2AFE6, size: 0x8, addend: 0x0, symName: __ZNSt3__122__compressed_pair_elemIP4LineLi0ELb0EE5__getB8ue170006Ev, symObjAddr: 0x8EBC, symBinAddr: 0x10000AAA8, symSize: 0x14 }
  - { offsetInCU: 0x2B028, offset: 0x2B028, size: 0x8, addend: 0x0, symName: __ZNSt3__16vectorI4LineNS_9allocatorIS1_EEE21_ConstructTransactionC1B8ue170006ERS4_m, symObjAddr: 0x8ED0, symBinAddr: 0x10000AABC, symSize: 0x3C }
  - { offsetInCU: 0x2B070, offset: 0x2B070, size: 0x8, addend: 0x0, symName: __ZNSt3__116allocator_traitsINS_9allocatorI4LineEEE9constructB8ue170006IS2_JRKS2_EvvEEvRS3_PT_DpOT0_, symObjAddr: 0x8F0C, symBinAddr: 0x10000AAF8, symSize: 0x30 }
  - { offsetInCU: 0x2B0C5, offset: 0x2B0C5, size: 0x8, addend: 0x0, symName: __ZNSt3__16vectorI4LineNS_9allocatorIS1_EEE21_ConstructTransactionD1B8ue170006Ev, symObjAddr: 0x8F3C, symBinAddr: 0x10000AB28, symSize: 0x2C }
  - { offsetInCU: 0x2B0EF, offset: 0x2B0EF, size: 0x8, addend: 0x0, symName: __ZNSt3__16vectorI4LineNS_9allocatorIS1_EEE21_ConstructTransactionC2B8ue170006ERS4_m, symObjAddr: 0x8F68, symBinAddr: 0x10000AB54, symSize: 0x4C }
  - { offsetInCU: 0x2B137, offset: 0x2B137, size: 0x8, addend: 0x0, symName: __ZN4LineC1ERKS_, symObjAddr: 0x8FF0, symBinAddr: 0x10000ABDC, symSize: 0x34 }
  - { offsetInCU: 0x2B16C, offset: 0x2B16C, size: 0x8, addend: 0x0, symName: __ZN4LineC2ERKS_, symObjAddr: 0x9024, symBinAddr: 0x10000AC10, symSize: 0x48 }
  - { offsetInCU: 0x2B1A1, offset: 0x2B1A1, size: 0x8, addend: 0x0, symName: __ZNSt3__16vectorI4LineNS_9allocatorIS1_EEE21_ConstructTransactionD2B8ue170006Ev, symObjAddr: 0x906C, symBinAddr: 0x10000AC58, symSize: 0x20 }
  - { offsetInCU: 0x2B1CB, offset: 0x2B1CB, size: 0x8, addend: 0x0, symName: __ZNKSt3__16vectorI4LineNS_9allocatorIS1_EEE11__recommendB8ue170006Em, symObjAddr: 0x908C, symBinAddr: 0x10000AC78, symSize: 0xB4 }
  - { offsetInCU: 0x2B220, offset: 0x2B220, size: 0x8, addend: 0x0, symName: __ZNSt3__114__split_bufferI4LineRNS_9allocatorIS1_EEEC1EmmS4_, symObjAddr: 0x9140, symBinAddr: 0x10000AD2C, symSize: 0x44 }
  - { offsetInCU: 0x2B276, offset: 0x2B276, size: 0x8, addend: 0x0, symName: __ZNSt3__114__split_bufferI4LineRNS_9allocatorIS1_EEED1Ev, symObjAddr: 0x9294, symBinAddr: 0x10000AE80, symSize: 0x2C }
  - { offsetInCU: 0x2B2A2, offset: 0x2B2A2, size: 0x8, addend: 0x0, symName: __ZNKSt3__16vectorI4LineNS_9allocatorIS1_EEE8max_sizeEv, symObjAddr: 0x92C0, symBinAddr: 0x10000AEAC, symSize: 0x60 }
  - { offsetInCU: 0x2B2CA, offset: 0x2B2CA, size: 0x8, addend: 0x0, symName: __ZNKSt3__16vectorI4LineNS_9allocatorIS1_EEE20__throw_length_errorB8ue170006Ev, symObjAddr: 0x9320, symBinAddr: 0x10000AF0C, symSize: 0x1C }
  - { offsetInCU: 0x2B2FB, offset: 0x2B2FB, size: 0x8, addend: 0x0, symName: __ZNSt3__116allocator_traitsINS_9allocatorI4LineEEE8max_sizeB8ue170006IS3_vvEEmRKS3_, symObjAddr: 0x933C, symBinAddr: 0x10000AF28, symSize: 0x28 }
  - { offsetInCU: 0x2B327, offset: 0x2B327, size: 0x8, addend: 0x0, symName: __ZNKSt3__16vectorI4LineNS_9allocatorIS1_EEE7__allocB8ue170006Ev, symObjAddr: 0x9364, symBinAddr: 0x10000AF50, symSize: 0x28 }
  - { offsetInCU: 0x2B34D, offset: 0x2B34D, size: 0x8, addend: 0x0, symName: __ZNKSt3__117__compressed_pairIP4LineNS_9allocatorIS1_EEE6secondB8ue170006Ev, symObjAddr: 0x938C, symBinAddr: 0x10000AF78, symSize: 0x24 }
  - { offsetInCU: 0x2B373, offset: 0x2B373, size: 0x8, addend: 0x0, symName: __ZNKSt3__122__compressed_pair_elemINS_9allocatorI4LineEELi1ELb1EE5__getB8ue170006Ev, symObjAddr: 0x93B0, symBinAddr: 0x10000AF9C, symSize: 0x14 }
  - { offsetInCU: 0x2B399, offset: 0x2B399, size: 0x8, addend: 0x0, symName: __ZNSt3__114__split_bufferI4LineRNS_9allocatorIS1_EEEC2EmmS4_, symObjAddr: 0x93C4, symBinAddr: 0x10000AFB0, symSize: 0xE0 }
  - { offsetInCU: 0x2B40C, offset: 0x2B40C, size: 0x8, addend: 0x0, symName: __ZNSt3__117__compressed_pairIP4LineRNS_9allocatorIS1_EEEC1B8ue170006IDnS5_EEOT_OT0_, symObjAddr: 0x94A4, symBinAddr: 0x10000B090, symSize: 0x3C }
  - { offsetInCU: 0x2B464, offset: 0x2B464, size: 0x8, addend: 0x0, symName: __ZNSt3__114__split_bufferI4LineRNS_9allocatorIS1_EEE7__allocB8ue170006Ev, symObjAddr: 0x951C, symBinAddr: 0x10000B108, symSize: 0x28 }
  - { offsetInCU: 0x2B48A, offset: 0x2B48A, size: 0x8, addend: 0x0, symName: __ZNSt3__114__split_bufferI4LineRNS_9allocatorIS1_EEE9__end_capB8ue170006Ev, symObjAddr: 0x9544, symBinAddr: 0x10000B130, symSize: 0x28 }
  - { offsetInCU: 0x2B4B0, offset: 0x2B4B0, size: 0x8, addend: 0x0, symName: __ZNSt3__117__compressed_pairIP4LineRNS_9allocatorIS1_EEEC2B8ue170006IDnS5_EEOT_OT0_, symObjAddr: 0x956C, symBinAddr: 0x10000B158, symSize: 0x48 }
  - { offsetInCU: 0x2B508, offset: 0x2B508, size: 0x8, addend: 0x0, symName: __ZNSt3__122__compressed_pair_elemIRNS_9allocatorI4LineEELi1ELb0EEC2B8ue170006IS4_vEEOT_, symObjAddr: 0x95B4, symBinAddr: 0x10000B1A0, symSize: 0x20 }
  - { offsetInCU: 0x2B54A, offset: 0x2B54A, size: 0x8, addend: 0x0, symName: __ZNSt3__19allocatorI4LineE17allocate_at_leastB8ue170006Em, symObjAddr: 0x9610, symBinAddr: 0x10000B1FC, symSize: 0x40 }
  - { offsetInCU: 0x2B57E, offset: 0x2B57E, size: 0x8, addend: 0x0, symName: __ZNSt3__19allocatorI4LineE8allocateB8ue170006Em, symObjAddr: 0x9650, symBinAddr: 0x10000B23C, symSize: 0x5C }
  - { offsetInCU: 0x2B5B2, offset: 0x2B5B2, size: 0x8, addend: 0x0, symName: __ZNSt3__117__compressed_pairIP4LineRNS_9allocatorIS1_EEE6secondB8ue170006Ev, symObjAddr: 0x96AC, symBinAddr: 0x10000B298, symSize: 0x28 }
  - { offsetInCU: 0x2B5D8, offset: 0x2B5D8, size: 0x8, addend: 0x0, symName: __ZNSt3__122__compressed_pair_elemIRNS_9allocatorI4LineEELi1ELb0EE5__getB8ue170006Ev, symObjAddr: 0x96D4, symBinAddr: 0x10000B2C0, symSize: 0x18 }
  - { offsetInCU: 0x2B5FE, offset: 0x2B5FE, size: 0x8, addend: 0x0, symName: __ZNSt3__117__compressed_pairIP4LineRNS_9allocatorIS1_EEE5firstB8ue170006Ev, symObjAddr: 0x96EC, symBinAddr: 0x10000B2D8, symSize: 0x24 }
  - { offsetInCU: 0x2B624, offset: 0x2B624, size: 0x8, addend: 0x0, symName: __ZNSt3__116reverse_iteratorIP4LineEC1B8ue170006ES2_, symObjAddr: 0x983C, symBinAddr: 0x10000B428, symSize: 0x34 }
  - { offsetInCU: 0x2B65C, offset: 0x2B65C, size: 0x8, addend: 0x0, symName: __ZNKSt3__116reverse_iteratorIP4LineE4baseB8ue170006Ev, symObjAddr: 0x9870, symBinAddr: 0x10000B45C, symSize: 0x18 }
  - { offsetInCU: 0x2B682, offset: 0x2B682, size: 0x8, addend: 0x0, symName: __ZNKSt3__16vectorI4LineNS_9allocatorIS1_EEE14__annotate_newB8ue170006Em, symObjAddr: 0x98C4, symBinAddr: 0x10000B4B0, symSize: 0xC8 }
  - { offsetInCU: 0x2B6B7, offset: 0x2B6B7, size: 0x8, addend: 0x0, symName: __ZNSt3__129_AllocatorDestroyRangeReverseINS_9allocatorI4LineEENS_16reverse_iteratorIPS2_EEEC1B8ue170006ERS3_RS6_S9_, symObjAddr: 0x99D8, symBinAddr: 0x10000B5C4, symSize: 0x44 }
  - { offsetInCU: 0x2B714, offset: 0x2B714, size: 0x8, addend: 0x0, symName: __ZNSt3__116allocator_traitsINS_9allocatorI4LineEEE9constructB8ue170006IS2_JS2_EvvEEvRS3_PT_DpOT0_, symObjAddr: 0x9A64, symBinAddr: 0x10000B650, symSize: 0x30 }
  - { offsetInCU: 0x2B769, offset: 0x2B769, size: 0x8, addend: 0x0, symName: __ZNKSt3__116reverse_iteratorIP4LineEdeB8ue170006Ev, symObjAddr: 0x9AB8, symBinAddr: 0x10000B6A4, symSize: 0x28 }
  - { offsetInCU: 0x2B79D, offset: 0x2B79D, size: 0x8, addend: 0x0, symName: __ZNSt3__116reverse_iteratorIP4LineEppB8ue170006Ev, symObjAddr: 0x9AE0, symBinAddr: 0x10000B6CC, symSize: 0x20 }
  - { offsetInCU: 0x2B7C3, offset: 0x2B7C3, size: 0x8, addend: 0x0, symName: __ZNSt3__128__exception_guard_exceptionsINS_29_AllocatorDestroyRangeReverseINS_9allocatorI4LineEENS_16reverse_iteratorIPS3_EEEEE10__completeB8ue170006Ev, symObjAddr: 0x9B00, symBinAddr: 0x10000B6EC, symSize: 0x1C }
  - { offsetInCU: 0x2B7E9, offset: 0x2B7E9, size: 0x8, addend: 0x0, symName: __ZNSt3__128__exception_guard_exceptionsINS_29_AllocatorDestroyRangeReverseINS_9allocatorI4LineEENS_16reverse_iteratorIPS3_EEEEED1B8ue170006Ev, symObjAddr: 0x9B1C, symBinAddr: 0x10000B708, symSize: 0x2C }
  - { offsetInCU: 0x2B813, offset: 0x2B813, size: 0x8, addend: 0x0, symName: __ZNSt3__128__exception_guard_exceptionsINS_29_AllocatorDestroyRangeReverseINS_9allocatorI4LineEENS_16reverse_iteratorIPS3_EEEEEC1B8ue170006ES8_, symObjAddr: 0x9B48, symBinAddr: 0x10000B734, symSize: 0x34 }
  - { offsetInCU: 0x2B84C, offset: 0x2B84C, size: 0x8, addend: 0x0, symName: __ZNSt3__128__exception_guard_exceptionsINS_29_AllocatorDestroyRangeReverseINS_9allocatorI4LineEENS_16reverse_iteratorIPS3_EEEEEC2B8ue170006ES8_, symObjAddr: 0x9B7C, symBinAddr: 0x10000B768, symSize: 0x30 }
  - { offsetInCU: 0x2B885, offset: 0x2B885, size: 0x8, addend: 0x0, symName: __ZNSt3__129_AllocatorDestroyRangeReverseINS_9allocatorI4LineEENS_16reverse_iteratorIPS2_EEEC2B8ue170006ERS3_RS6_S9_, symObjAddr: 0x9BAC, symBinAddr: 0x10000B798, symSize: 0x38 }
  - { offsetInCU: 0x2B8DC, offset: 0x2B8DC, size: 0x8, addend: 0x0, symName: __ZN4LineC1EOS_, symObjAddr: 0x9C20, symBinAddr: 0x10000B80C, symSize: 0x34 }
  - { offsetInCU: 0x2B911, offset: 0x2B911, size: 0x8, addend: 0x0, symName: __ZN4LineC2EOS_, symObjAddr: 0x9C54, symBinAddr: 0x10000B840, symSize: 0x48 }
  - { offsetInCU: 0x2B946, offset: 0x2B946, size: 0x8, addend: 0x0, symName: __ZNSt3__16vectorINS_12basic_stringIcNS_11char_traitsIcEENS_9allocatorIcEEEENS4_IS6_EEEC1B8ue170006EOS8_, symObjAddr: 0x9C9C, symBinAddr: 0x10000B888, symSize: 0x34 }
  - { offsetInCU: 0x2B981, offset: 0x2B981, size: 0x8, addend: 0x0, symName: __ZNSt3__16vectorINS_12basic_stringIcNS_11char_traitsIcEENS_9allocatorIcEEEENS4_IS6_EEEC2B8ue170006EOS8_, symObjAddr: 0x9CD0, symBinAddr: 0x10000B8BC, symSize: 0xC4 }
  - { offsetInCU: 0x2B9C2, offset: 0x2B9C2, size: 0x8, addend: 0x0, symName: __ZNSt3__119__to_address_helperINS_16reverse_iteratorIP4LineEEvE6__callB8ue170006ERKS4_, symObjAddr: 0x9D94, symBinAddr: 0x10000B980, symSize: 0x38 }
  - { offsetInCU: 0x2B9E5, offset: 0x2B9E5, size: 0x8, addend: 0x0, symName: __ZNKSt3__116reverse_iteratorIP4LineEptB8ue170006Ev, symObjAddr: 0x9DCC, symBinAddr: 0x10000B9B8, symSize: 0x2C }
  - { offsetInCU: 0x2BA0B, offset: 0x2BA0B, size: 0x8, addend: 0x0, symName: __ZNSt3__128__exception_guard_exceptionsINS_29_AllocatorDestroyRangeReverseINS_9allocatorI4LineEENS_16reverse_iteratorIPS3_EEEEED2B8ue170006Ev, symObjAddr: 0x9E9C, symBinAddr: 0x10000BA88, symSize: 0x50 }
  - { offsetInCU: 0x2BA35, offset: 0x2BA35, size: 0x8, addend: 0x0, symName: __ZNKSt3__129_AllocatorDestroyRangeReverseINS_9allocatorI4LineEENS_16reverse_iteratorIPS2_EEEclB8ue170006Ev, symObjAddr: 0x9EEC, symBinAddr: 0x10000BAD8, symSize: 0xB4 }
  - { offsetInCU: 0x2BA5C, offset: 0x2BA5C, size: 0x8, addend: 0x0, symName: __ZNSt3__116reverse_iteratorINS0_IP4LineEEEC1B8ue170006ES3_, symObjAddr: 0xA010, symBinAddr: 0x10000BBFC, symSize: 0x3C }
  - { offsetInCU: 0x2BA94, offset: 0x2BA94, size: 0x8, addend: 0x0, symName: __ZNSt3__116reverse_iteratorINS0_IP4LineEEEppB8ue170006Ev, symObjAddr: 0xA0D0, symBinAddr: 0x10000BCBC, symSize: 0x30 }
  - { offsetInCU: 0x2BABA, offset: 0x2BABA, size: 0x8, addend: 0x0, symName: __ZNKSt3__116reverse_iteratorINS0_IP4LineEEE4baseB8ue170006Ev, symObjAddr: 0xA100, symBinAddr: 0x10000BCEC, symSize: 0x24 }
  - { offsetInCU: 0x2BAE6, offset: 0x2BAE6, size: 0x8, addend: 0x0, symName: __ZNSt3__119__to_address_helperINS_16reverse_iteratorINS1_IP4LineEEEEvE6__callB8ue170006ERKS5_, symObjAddr: 0xA124, symBinAddr: 0x10000BD10, symSize: 0x38 }
  - { offsetInCU: 0x2BB09, offset: 0x2BB09, size: 0x8, addend: 0x0, symName: __ZNKSt3__116reverse_iteratorINS0_IP4LineEEEptB8ue170006Ev, symObjAddr: 0xA15C, symBinAddr: 0x10000BD48, symSize: 0x4C }
  - { offsetInCU: 0x2BB2F, offset: 0x2BB2F, size: 0x8, addend: 0x0, symName: __ZNSt3__116reverse_iteratorIP4LineEpLB8ue170006El, symObjAddr: 0xA258, symBinAddr: 0x10000BE44, symSize: 0x30 }
  - { offsetInCU: 0x2BB63, offset: 0x2BB63, size: 0x8, addend: 0x0, symName: __ZNSt3__116reverse_iteratorIP4LineEmmB8ue170006Ev, symObjAddr: 0xA288, symBinAddr: 0x10000BE74, symSize: 0x20 }
  - { offsetInCU: 0x2BB89, offset: 0x2BB89, size: 0x8, addend: 0x0, symName: __ZNSt3__116reverse_iteratorINS0_IP4LineEEEC2B8ue170006ES3_, symObjAddr: 0xA2A8, symBinAddr: 0x10000BE94, symSize: 0x2C }
  - { offsetInCU: 0x2BBC1, offset: 0x2BBC1, size: 0x8, addend: 0x0, symName: __ZNSt3__116reverse_iteratorIP4LineEC2B8ue170006ES2_, symObjAddr: 0xA2D4, symBinAddr: 0x10000BEC0, symSize: 0x28 }
  - { offsetInCU: 0x2BBF9, offset: 0x2BBF9, size: 0x8, addend: 0x0, symName: __ZNSt3__114__split_bufferI4LineRNS_9allocatorIS1_EEED2Ev, symObjAddr: 0xA2FC, symBinAddr: 0x10000BEE8, symSize: 0x8C }
  - { offsetInCU: 0x2BC25, offset: 0x2BC25, size: 0x8, addend: 0x0, symName: __ZNSt3__114__split_bufferI4LineRNS_9allocatorIS1_EEE5clearB8ue170006Ev, symObjAddr: 0xA388, symBinAddr: 0x10000BF74, symSize: 0x28 }
  - { offsetInCU: 0x2BC4B, offset: 0x2BC4B, size: 0x8, addend: 0x0, symName: __ZNKSt3__114__split_bufferI4LineRNS_9allocatorIS1_EEE8capacityB8ue170006Ev, symObjAddr: 0xA3B0, symBinAddr: 0x10000BF9C, symSize: 0x40 }
  - { offsetInCU: 0x2BC71, offset: 0x2BC71, size: 0x8, addend: 0x0, symName: __ZNSt3__114__split_bufferI4LineRNS_9allocatorIS1_EEE17__destruct_at_endB8ue170006EPS1_, symObjAddr: 0xA3F0, symBinAddr: 0x10000BFDC, symSize: 0x2C }
  - { offsetInCU: 0x2BCA5, offset: 0x2BCA5, size: 0x8, addend: 0x0, symName: __ZNSt3__114__split_bufferI4LineRNS_9allocatorIS1_EEE17__destruct_at_endB8ue170006EPS1_NS_17integral_constantIbLb0EEE, symObjAddr: 0xA41C, symBinAddr: 0x10000C008, symSize: 0x80 }
  - { offsetInCU: 0x2BCE5, offset: 0x2BCE5, size: 0x8, addend: 0x0, symName: __ZNKSt3__114__split_bufferI4LineRNS_9allocatorIS1_EEE9__end_capB8ue170006Ev, symObjAddr: 0xA49C, symBinAddr: 0x10000C088, symSize: 0x28 }
  - { offsetInCU: 0x2BD0B, offset: 0x2BD0B, size: 0x8, addend: 0x0, symName: __ZNKSt3__117__compressed_pairIP4LineRNS_9allocatorIS1_EEE5firstB8ue170006Ev, symObjAddr: 0xA4C4, symBinAddr: 0x10000C0B0, symSize: 0x24 }
  - { offsetInCU: 0x2BD31, offset: 0x2BD31, size: 0x8, addend: 0x0, symName: __ZNKSt3__112basic_stringIcNS_11char_traitsIcEENS_9allocatorIcEEE5c_strB8ue170006Ev, symObjAddr: 0xA4E8, symBinAddr: 0x10000C0D4, symSize: 0x24 }
  - { offsetInCU: 0x2BD57, offset: 0x2BD57, size: 0x8, addend: 0x0, symName: __ZN7HashMap8fnv1a_64EPKcm, symObjAddr: 0xA50C, symBinAddr: 0x10000C0F8, symSize: 0xA0 }
  - { offsetInCU: 0x2BDD1, offset: 0x2BDD1, size: 0x8, addend: 0x0, symName: __ZNKSt3__112basic_stringIcNS_11char_traitsIcEENS_9allocatorIcEEE6lengthB8ue170006Ev, symObjAddr: 0xA5AC, symBinAddr: 0x10000C198, symSize: 0x24 }
  - { offsetInCU: 0x2BDF7, offset: 0x2BDF7, size: 0x8, addend: 0x0, symName: __ZN4NodeC1Ev, symObjAddr: 0xA5D0, symBinAddr: 0x10000C1BC, symSize: 0x2C }
  - { offsetInCU: 0x2BE23, offset: 0x2BE23, size: 0x8, addend: 0x0, symName: __ZN4NodeclERKNSt3__112basic_stringIcNS0_11char_traitsIcEENS0_9allocatorIcEEEERKi, symObjAddr: 0xA5FC, symBinAddr: 0x10000C1E8, symSize: 0x48 }
  - { offsetInCU: 0x2BE65, offset: 0x2BE65, size: 0x8, addend: 0x0, symName: __ZNSt3__16vectorINS0_I4NodeNS_9allocatorIS1_EEEENS2_IS4_EEEixB8ue170006Em, symObjAddr: 0xA644, symBinAddr: 0x10000C230, symSize: 0x2C }
  - { offsetInCU: 0x2BE9C, offset: 0x2BE9C, size: 0x8, addend: 0x0, symName: __ZNSt3__16vectorI4NodeNS_9allocatorIS1_EEE9push_backB8ue170006ERKS1_, symObjAddr: 0xA670, symBinAddr: 0x10000C25C, symSize: 0x6C }
  - { offsetInCU: 0x2BED3, offset: 0x2BED3, size: 0x8, addend: 0x0, symName: __ZNKSt3__112basic_stringIcNS_11char_traitsIcEENS_9allocatorIcEEE4dataB8ue170006Ev, symObjAddr: 0xA6DC, symBinAddr: 0x10000C2C8, symSize: 0x28 }
  - { offsetInCU: 0x2BEF9, offset: 0x2BEF9, size: 0x8, addend: 0x0, symName: __ZN4NodeC2Ev, symObjAddr: 0xA718, symBinAddr: 0x10000C304, symSize: 0x30 }
  - { offsetInCU: 0x2BF2B, offset: 0x2BF2B, size: 0x8, addend: 0x0, symName: __ZNSt3__16vectorI4NodeNS_9allocatorIS1_EEE22__construct_one_at_endB8ue170006IJRKS1_EEEvDpOT_, symObjAddr: 0xA748, symBinAddr: 0x10000C334, symSize: 0x90 }
  - { offsetInCU: 0x2BF7A, offset: 0x2BF7A, size: 0x8, addend: 0x0, symName: __ZNSt3__16vectorI4NodeNS_9allocatorIS1_EEE21__push_back_slow_pathIRKS1_EEvOT_, symObjAddr: 0xA7D8, symBinAddr: 0x10000C3C4, symSize: 0xD8 }
  - { offsetInCU: 0x2BFF4, offset: 0x2BFF4, size: 0x8, addend: 0x0, symName: __ZNSt3__16vectorI4NodeNS_9allocatorIS1_EEE21_ConstructTransactionC1B8ue170006ERS4_m, symObjAddr: 0xA8B0, symBinAddr: 0x10000C49C, symSize: 0x3C }
  - { offsetInCU: 0x2C03C, offset: 0x2C03C, size: 0x8, addend: 0x0, symName: __ZNSt3__116allocator_traitsINS_9allocatorI4NodeEEE9constructB8ue170006IS2_JRKS2_EvvEEvRS3_PT_DpOT0_, symObjAddr: 0xA8EC, symBinAddr: 0x10000C4D8, symSize: 0x30 }
  - { offsetInCU: 0x2C091, offset: 0x2C091, size: 0x8, addend: 0x0, symName: __ZNSt3__16vectorI4NodeNS_9allocatorIS1_EEE21_ConstructTransactionD1B8ue170006Ev, symObjAddr: 0xA91C, symBinAddr: 0x10000C508, symSize: 0x2C }
  - { offsetInCU: 0x2C0BB, offset: 0x2C0BB, size: 0x8, addend: 0x0, symName: __ZNSt3__16vectorI4NodeNS_9allocatorIS1_EEE21_ConstructTransactionC2B8ue170006ERS4_m, symObjAddr: 0xA948, symBinAddr: 0x10000C534, symSize: 0x44 }
  - { offsetInCU: 0x2C103, offset: 0x2C103, size: 0x8, addend: 0x0, symName: __ZN4NodeC1ERKS_, symObjAddr: 0xA9C8, symBinAddr: 0x10000C5B4, symSize: 0x34 }
  - { offsetInCU: 0x2C138, offset: 0x2C138, size: 0x8, addend: 0x0, symName: __ZN4NodeC2ERKS_, symObjAddr: 0xA9FC, symBinAddr: 0x10000C5E8, symSize: 0x48 }
  - { offsetInCU: 0x2C16D, offset: 0x2C16D, size: 0x8, addend: 0x0, symName: __ZNSt3__16vectorI4NodeNS_9allocatorIS1_EEE21_ConstructTransactionD2B8ue170006Ev, symObjAddr: 0xAA44, symBinAddr: 0x10000C630, symSize: 0x20 }
  - { offsetInCU: 0x2C197, offset: 0x2C197, size: 0x8, addend: 0x0, symName: __ZNKSt3__16vectorI4NodeNS_9allocatorIS1_EEE11__recommendB8ue170006Em, symObjAddr: 0xAA64, symBinAddr: 0x10000C650, symSize: 0xB4 }
  - { offsetInCU: 0x2C1EC, offset: 0x2C1EC, size: 0x8, addend: 0x0, symName: __ZNSt3__114__split_bufferI4NodeRNS_9allocatorIS1_EEEC1EmmS4_, symObjAddr: 0xAB18, symBinAddr: 0x10000C704, symSize: 0x44 }
  - { offsetInCU: 0x2C242, offset: 0x2C242, size: 0x8, addend: 0x0, symName: __ZNSt3__114__split_bufferI4NodeRNS_9allocatorIS1_EEED1Ev, symObjAddr: 0xAC6C, symBinAddr: 0x10000C858, symSize: 0x2C }
  - { offsetInCU: 0x2C26E, offset: 0x2C26E, size: 0x8, addend: 0x0, symName: __ZNKSt3__16vectorI4NodeNS_9allocatorIS1_EEE8max_sizeEv, symObjAddr: 0xAC98, symBinAddr: 0x10000C884, symSize: 0x60 }
  - { offsetInCU: 0x2C296, offset: 0x2C296, size: 0x8, addend: 0x0, symName: __ZNKSt3__16vectorI4NodeNS_9allocatorIS1_EEE20__throw_length_errorB8ue170006Ev, symObjAddr: 0xACF8, symBinAddr: 0x10000C8E4, symSize: 0x1C }
  - { offsetInCU: 0x2C2C7, offset: 0x2C2C7, size: 0x8, addend: 0x0, symName: __ZNSt3__116allocator_traitsINS_9allocatorI4NodeEEE8max_sizeB8ue170006IS3_vvEEmRKS3_, symObjAddr: 0xAD14, symBinAddr: 0x10000C900, symSize: 0x28 }
  - { offsetInCU: 0x2C2F3, offset: 0x2C2F3, size: 0x8, addend: 0x0, symName: __ZNKSt3__16vectorI4NodeNS_9allocatorIS1_EEE7__allocB8ue170006Ev, symObjAddr: 0xAD3C, symBinAddr: 0x10000C928, symSize: 0x28 }
  - { offsetInCU: 0x2C319, offset: 0x2C319, size: 0x8, addend: 0x0, symName: __ZNKSt3__117__compressed_pairIP4NodeNS_9allocatorIS1_EEE6secondB8ue170006Ev, symObjAddr: 0xAD64, symBinAddr: 0x10000C950, symSize: 0x24 }
  - { offsetInCU: 0x2C33F, offset: 0x2C33F, size: 0x8, addend: 0x0, symName: __ZNKSt3__122__compressed_pair_elemINS_9allocatorI4NodeEELi1ELb1EE5__getB8ue170006Ev, symObjAddr: 0xAD88, symBinAddr: 0x10000C974, symSize: 0x14 }
  - { offsetInCU: 0x2C365, offset: 0x2C365, size: 0x8, addend: 0x0, symName: __ZNSt3__114__split_bufferI4NodeRNS_9allocatorIS1_EEEC2EmmS4_, symObjAddr: 0xAD9C, symBinAddr: 0x10000C988, symSize: 0xD4 }
  - { offsetInCU: 0x2C3D8, offset: 0x2C3D8, size: 0x8, addend: 0x0, symName: __ZNSt3__117__compressed_pairIP4NodeRNS_9allocatorIS1_EEEC1B8ue170006IDnS5_EEOT_OT0_, symObjAddr: 0xAE70, symBinAddr: 0x10000CA5C, symSize: 0x3C }
  - { offsetInCU: 0x2C430, offset: 0x2C430, size: 0x8, addend: 0x0, symName: __ZNSt3__114__split_bufferI4NodeRNS_9allocatorIS1_EEE7__allocB8ue170006Ev, symObjAddr: 0xAEE8, symBinAddr: 0x10000CAD4, symSize: 0x28 }
  - { offsetInCU: 0x2C456, offset: 0x2C456, size: 0x8, addend: 0x0, symName: __ZNSt3__114__split_bufferI4NodeRNS_9allocatorIS1_EEE9__end_capB8ue170006Ev, symObjAddr: 0xAF10, symBinAddr: 0x10000CAFC, symSize: 0x28 }
  - { offsetInCU: 0x2C47C, offset: 0x2C47C, size: 0x8, addend: 0x0, symName: __ZNSt3__117__compressed_pairIP4NodeRNS_9allocatorIS1_EEEC2B8ue170006IDnS5_EEOT_OT0_, symObjAddr: 0xAF38, symBinAddr: 0x10000CB24, symSize: 0x48 }
  - { offsetInCU: 0x2C4D4, offset: 0x2C4D4, size: 0x8, addend: 0x0, symName: __ZNSt3__122__compressed_pair_elemIRNS_9allocatorI4NodeEELi1ELb0EEC2B8ue170006IS4_vEEOT_, symObjAddr: 0xAF80, symBinAddr: 0x10000CB6C, symSize: 0x20 }
  - { offsetInCU: 0x2C516, offset: 0x2C516, size: 0x8, addend: 0x0, symName: __ZNSt3__19allocatorI4NodeE17allocate_at_leastB8ue170006Em, symObjAddr: 0xAFDC, symBinAddr: 0x10000CBC8, symSize: 0x40 }
  - { offsetInCU: 0x2C54A, offset: 0x2C54A, size: 0x8, addend: 0x0, symName: __ZNSt3__19allocatorI4NodeE8allocateB8ue170006Em, symObjAddr: 0xB01C, symBinAddr: 0x10000CC08, symSize: 0x58 }
  - { offsetInCU: 0x2C57E, offset: 0x2C57E, size: 0x8, addend: 0x0, symName: __ZNSt3__117__compressed_pairIP4NodeRNS_9allocatorIS1_EEE6secondB8ue170006Ev, symObjAddr: 0xB074, symBinAddr: 0x10000CC60, symSize: 0x28 }
  - { offsetInCU: 0x2C5A4, offset: 0x2C5A4, size: 0x8, addend: 0x0, symName: __ZNSt3__122__compressed_pair_elemIRNS_9allocatorI4NodeEELi1ELb0EE5__getB8ue170006Ev, symObjAddr: 0xB09C, symBinAddr: 0x10000CC88, symSize: 0x18 }
  - { offsetInCU: 0x2C5CA, offset: 0x2C5CA, size: 0x8, addend: 0x0, symName: __ZNSt3__117__compressed_pairIP4NodeRNS_9allocatorIS1_EEE5firstB8ue170006Ev, symObjAddr: 0xB0B4, symBinAddr: 0x10000CCA0, symSize: 0x24 }
  - { offsetInCU: 0x2C5F0, offset: 0x2C5F0, size: 0x8, addend: 0x0, symName: __ZNSt3__116reverse_iteratorIP4NodeEC1B8ue170006ES2_, symObjAddr: 0xB204, symBinAddr: 0x10000CDF0, symSize: 0x34 }
  - { offsetInCU: 0x2C628, offset: 0x2C628, size: 0x8, addend: 0x0, symName: __ZNKSt3__116reverse_iteratorIP4NodeE4baseB8ue170006Ev, symObjAddr: 0xB238, symBinAddr: 0x10000CE24, symSize: 0x18 }
  - { offsetInCU: 0x2C64E, offset: 0x2C64E, size: 0x8, addend: 0x0, symName: __ZNKSt3__16vectorI4NodeNS_9allocatorIS1_EEE14__annotate_newB8ue170006Em, symObjAddr: 0xB28C, symBinAddr: 0x10000CE78, symSize: 0xAC }
  - { offsetInCU: 0x2C683, offset: 0x2C683, size: 0x8, addend: 0x0, symName: __ZNSt3__129_AllocatorDestroyRangeReverseINS_9allocatorI4NodeEENS_16reverse_iteratorIPS2_EEEC1B8ue170006ERS3_RS6_S9_, symObjAddr: 0xB384, symBinAddr: 0x10000CF70, symSize: 0x44 }
  - { offsetInCU: 0x2C6E0, offset: 0x2C6E0, size: 0x8, addend: 0x0, symName: __ZNSt3__116allocator_traitsINS_9allocatorI4NodeEEE9constructB8ue170006IS2_JS2_EvvEEvRS3_PT_DpOT0_, symObjAddr: 0xB410, symBinAddr: 0x10000CFFC, symSize: 0x30 }
  - { offsetInCU: 0x2C735, offset: 0x2C735, size: 0x8, addend: 0x0, symName: __ZNKSt3__116reverse_iteratorIP4NodeEdeB8ue170006Ev, symObjAddr: 0xB464, symBinAddr: 0x10000D050, symSize: 0x28 }
  - { offsetInCU: 0x2C769, offset: 0x2C769, size: 0x8, addend: 0x0, symName: __ZNSt3__116reverse_iteratorIP4NodeEppB8ue170006Ev, symObjAddr: 0xB48C, symBinAddr: 0x10000D078, symSize: 0x20 }
  - { offsetInCU: 0x2C78F, offset: 0x2C78F, size: 0x8, addend: 0x0, symName: __ZNSt3__128__exception_guard_exceptionsINS_29_AllocatorDestroyRangeReverseINS_9allocatorI4NodeEENS_16reverse_iteratorIPS3_EEEEE10__completeB8ue170006Ev, symObjAddr: 0xB4AC, symBinAddr: 0x10000D098, symSize: 0x1C }
  - { offsetInCU: 0x2C7B5, offset: 0x2C7B5, size: 0x8, addend: 0x0, symName: __ZNSt3__128__exception_guard_exceptionsINS_29_AllocatorDestroyRangeReverseINS_9allocatorI4NodeEENS_16reverse_iteratorIPS3_EEEEED1B8ue170006Ev, symObjAddr: 0xB4C8, symBinAddr: 0x10000D0B4, symSize: 0x2C }
  - { offsetInCU: 0x2C7DF, offset: 0x2C7DF, size: 0x8, addend: 0x0, symName: __ZNSt3__128__exception_guard_exceptionsINS_29_AllocatorDestroyRangeReverseINS_9allocatorI4NodeEENS_16reverse_iteratorIPS3_EEEEEC1B8ue170006ES8_, symObjAddr: 0xB4F4, symBinAddr: 0x10000D0E0, symSize: 0x34 }
  - { offsetInCU: 0x2C818, offset: 0x2C818, size: 0x8, addend: 0x0, symName: __ZNSt3__128__exception_guard_exceptionsINS_29_AllocatorDestroyRangeReverseINS_9allocatorI4NodeEENS_16reverse_iteratorIPS3_EEEEEC2B8ue170006ES8_, symObjAddr: 0xB528, symBinAddr: 0x10000D114, symSize: 0x30 }
  - { offsetInCU: 0x2C851, offset: 0x2C851, size: 0x8, addend: 0x0, symName: __ZNSt3__129_AllocatorDestroyRangeReverseINS_9allocatorI4NodeEENS_16reverse_iteratorIPS2_EEEC2B8ue170006ERS3_RS6_S9_, symObjAddr: 0xB558, symBinAddr: 0x10000D144, symSize: 0x38 }
  - { offsetInCU: 0x2C8A8, offset: 0x2C8A8, size: 0x8, addend: 0x0, symName: __ZN4NodeC1EOS_, symObjAddr: 0xB5CC, symBinAddr: 0x10000D1B8, symSize: 0x34 }
  - { offsetInCU: 0x2C8DD, offset: 0x2C8DD, size: 0x8, addend: 0x0, symName: __ZN4NodeC2EOS_, symObjAddr: 0xB600, symBinAddr: 0x10000D1EC, symSize: 0x48 }
  - { offsetInCU: 0x2C918, offset: 0x2C918, size: 0x8, addend: 0x0, symName: __ZNSt3__119__to_address_helperINS_16reverse_iteratorIP4NodeEEvE6__callB8ue170006ERKS4_, symObjAddr: 0xB648, symBinAddr: 0x10000D234, symSize: 0x38 }
  - { offsetInCU: 0x2C93B, offset: 0x2C93B, size: 0x8, addend: 0x0, symName: __ZNKSt3__116reverse_iteratorIP4NodeEptB8ue170006Ev, symObjAddr: 0xB680, symBinAddr: 0x10000D26C, symSize: 0x2C }
  - { offsetInCU: 0x2C961, offset: 0x2C961, size: 0x8, addend: 0x0, symName: __ZNSt3__128__exception_guard_exceptionsINS_29_AllocatorDestroyRangeReverseINS_9allocatorI4NodeEENS_16reverse_iteratorIPS3_EEEEED2B8ue170006Ev, symObjAddr: 0xB748, symBinAddr: 0x10000D334, symSize: 0x50 }
  - { offsetInCU: 0x2C98B, offset: 0x2C98B, size: 0x8, addend: 0x0, symName: __ZNKSt3__129_AllocatorDestroyRangeReverseINS_9allocatorI4NodeEENS_16reverse_iteratorIPS2_EEEclB8ue170006Ev, symObjAddr: 0xB798, symBinAddr: 0x10000D384, symSize: 0xB4 }
  - { offsetInCU: 0x2C9B2, offset: 0x2C9B2, size: 0x8, addend: 0x0, symName: __ZNSt3__116reverse_iteratorINS0_IP4NodeEEEC1B8ue170006ES3_, symObjAddr: 0xB8BC, symBinAddr: 0x10000D4A8, symSize: 0x3C }
  - { offsetInCU: 0x2C9EA, offset: 0x2C9EA, size: 0x8, addend: 0x0, symName: __ZNSt3__116reverse_iteratorINS0_IP4NodeEEEppB8ue170006Ev, symObjAddr: 0xB97C, symBinAddr: 0x10000D568, symSize: 0x30 }
  - { offsetInCU: 0x2CA10, offset: 0x2CA10, size: 0x8, addend: 0x0, symName: __ZNKSt3__116reverse_iteratorINS0_IP4NodeEEE4baseB8ue170006Ev, symObjAddr: 0xB9AC, symBinAddr: 0x10000D598, symSize: 0x24 }
  - { offsetInCU: 0x2CA3C, offset: 0x2CA3C, size: 0x8, addend: 0x0, symName: __ZNSt3__119__to_address_helperINS_16reverse_iteratorINS1_IP4NodeEEEEvE6__callB8ue170006ERKS5_, symObjAddr: 0xB9D0, symBinAddr: 0x10000D5BC, symSize: 0x38 }
  - { offsetInCU: 0x2CA5F, offset: 0x2CA5F, size: 0x8, addend: 0x0, symName: __ZNKSt3__116reverse_iteratorINS0_IP4NodeEEEptB8ue170006Ev, symObjAddr: 0xBA08, symBinAddr: 0x10000D5F4, symSize: 0x4C }
  - { offsetInCU: 0x2CA85, offset: 0x2CA85, size: 0x8, addend: 0x0, symName: __ZNSt3__116reverse_iteratorIP4NodeEpLB8ue170006El, symObjAddr: 0xBB04, symBinAddr: 0x10000D6F0, symSize: 0x30 }
  - { offsetInCU: 0x2CAB9, offset: 0x2CAB9, size: 0x8, addend: 0x0, symName: __ZNSt3__116reverse_iteratorIP4NodeEmmB8ue170006Ev, symObjAddr: 0xBB34, symBinAddr: 0x10000D720, symSize: 0x20 }
  - { offsetInCU: 0x2CADF, offset: 0x2CADF, size: 0x8, addend: 0x0, symName: __ZNSt3__116reverse_iteratorINS0_IP4NodeEEEC2B8ue170006ES3_, symObjAddr: 0xBB54, symBinAddr: 0x10000D740, symSize: 0x2C }
  - { offsetInCU: 0x2CB17, offset: 0x2CB17, size: 0x8, addend: 0x0, symName: __ZNSt3__116reverse_iteratorIP4NodeEC2B8ue170006ES2_, symObjAddr: 0xBB80, symBinAddr: 0x10000D76C, symSize: 0x28 }
  - { offsetInCU: 0x2CB4F, offset: 0x2CB4F, size: 0x8, addend: 0x0, symName: __ZNSt3__114__split_bufferI4NodeRNS_9allocatorIS1_EEED2Ev, symObjAddr: 0xBBA8, symBinAddr: 0x10000D794, symSize: 0x8C }
  - { offsetInCU: 0x2CB7B, offset: 0x2CB7B, size: 0x8, addend: 0x0, symName: __ZNSt3__114__split_bufferI4NodeRNS_9allocatorIS1_EEE5clearB8ue170006Ev, symObjAddr: 0xBC34, symBinAddr: 0x10000D820, symSize: 0x28 }
  - { offsetInCU: 0x2CBA1, offset: 0x2CBA1, size: 0x8, addend: 0x0, symName: __ZNKSt3__114__split_bufferI4NodeRNS_9allocatorIS1_EEE8capacityB8ue170006Ev, symObjAddr: 0xBC5C, symBinAddr: 0x10000D848, symSize: 0x40 }
  - { offsetInCU: 0x2CBC7, offset: 0x2CBC7, size: 0x8, addend: 0x0, symName: __ZNSt3__114__split_bufferI4NodeRNS_9allocatorIS1_EEE17__destruct_at_endB8ue170006EPS1_, symObjAddr: 0xBC9C, symBinAddr: 0x10000D888, symSize: 0x2C }
  - { offsetInCU: 0x2CBFB, offset: 0x2CBFB, size: 0x8, addend: 0x0, symName: __ZNSt3__114__split_bufferI4NodeRNS_9allocatorIS1_EEE17__destruct_at_endB8ue170006EPS1_NS_17integral_constantIbLb0EEE, symObjAddr: 0xBCC8, symBinAddr: 0x10000D8B4, symSize: 0x80 }
  - { offsetInCU: 0x2CC3B, offset: 0x2CC3B, size: 0x8, addend: 0x0, symName: __ZNKSt3__114__split_bufferI4NodeRNS_9allocatorIS1_EEE9__end_capB8ue170006Ev, symObjAddr: 0xBD48, symBinAddr: 0x10000D934, symSize: 0x28 }
  - { offsetInCU: 0x2CC61, offset: 0x2CC61, size: 0x8, addend: 0x0, symName: __ZNKSt3__117__compressed_pairIP4NodeRNS_9allocatorIS1_EEE5firstB8ue170006Ev, symObjAddr: 0xBD70, symBinAddr: 0x10000D95C, symSize: 0x24 }
  - { offsetInCU: 0x2CC87, offset: 0x2CC87, size: 0x8, addend: 0x0, symName: __ZNKSt3__16vectorINS_12basic_stringIcNS_11char_traitsIcEENS_9allocatorIcEEEENS4_IS6_EEE5emptyB8ue170006Ev, symObjAddr: 0xBD94, symBinAddr: 0x10000D980, symSize: 0x28 }
  - { offsetInCU: 0x2CCAD, offset: 0x2CCAD, size: 0x8, addend: 0x0, symName: __ZNSt3__16vectorINS_12basic_stringIcNS_11char_traitsIcEENS_9allocatorIcEEEENS4_IS6_EEEixB8ue170006Em, symObjAddr: 0xBDBC, symBinAddr: 0x10000D9A8, symSize: 0x2C }
  - { offsetInCU: 0x2CCE4, offset: 0x2CCE4, size: 0x8, addend: 0x0, symName: __ZNSt3__16vectorINS_12basic_stringIcNS_11char_traitsIcEENS_9allocatorIcEEEENS4_IS6_EEE5beginB8ue170006Ev, symObjAddr: 0xBDE8, symBinAddr: 0x10000D9D4, symSize: 0x30 }
  - { offsetInCU: 0x2CD0C, offset: 0x2CD0C, size: 0x8, addend: 0x0, symName: __ZNSt3__16vectorINS_12basic_stringIcNS_11char_traitsIcEENS_9allocatorIcEEEENS4_IS6_EEE3endB8ue170006Ev, symObjAddr: 0xBE18, symBinAddr: 0x10000DA04, symSize: 0x30 }
  - { offsetInCU: 0x2CD34, offset: 0x2CD34, size: 0x8, addend: 0x0, symName: __ZNKSt3__111__wrap_iterIPNS_12basic_stringIcNS_11char_traitsIcEENS_9allocatorIcEEEEEdeB8ue170006Ev, symObjAddr: 0xBE7C, symBinAddr: 0x10000DA68, symSize: 0x18 }
  - { offsetInCU: 0x2CD5A, offset: 0x2CD5A, size: 0x8, addend: 0x0, symName: __ZNSt3__112basic_stringIcNS_11char_traitsIcEENS_9allocatorIcEEEpLB8ue170006ERKS5_, symObjAddr: 0xBFB0, symBinAddr: 0x10000DB9C, symSize: 0x2C }
  - { offsetInCU: 0x2CD8F, offset: 0x2CD8F, size: 0x8, addend: 0x0, symName: __ZNSt3__111__wrap_iterIPNS_12basic_stringIcNS_11char_traitsIcEENS_9allocatorIcEEEEEppB8ue170006Ev, symObjAddr: 0xBFDC, symBinAddr: 0x10000DBC8, symSize: 0x20 }
  - { offsetInCU: 0x2CDB5, offset: 0x2CDB5, size: 0x8, addend: 0x0, symName: __ZNSt3__112basic_stringIcNS_11char_traitsIcEENS_9allocatorIcEEE8pop_backB8ue170006Ev, symObjAddr: 0xBFFC, symBinAddr: 0x10000DBE8, symSize: 0x38 }
  - { offsetInCU: 0x2CDDD, offset: 0x2CDDD, size: 0x8, addend: 0x0, symName: __ZNSt3__112basic_stringIcNS_11char_traitsIcEENS_9allocatorIcEEEpLB8ue170006EPKc, symObjAddr: 0xC034, symBinAddr: 0x10000DC20, symSize: 0x2C }
  - { offsetInCU: 0x2CE12, offset: 0x2CE12, size: 0x8, addend: 0x0, symName: __ZNSt3__16vectorINS_12basic_stringIcNS_11char_traitsIcEENS_9allocatorIcEEEENS4_IS6_EEE11__make_iterB8ue170006EPS6_, symObjAddr: 0xC060, symBinAddr: 0x10000DC4C, symSize: 0x30 }
  - { offsetInCU: 0x2CE47, offset: 0x2CE47, size: 0x8, addend: 0x0, symName: __ZNSt3__111__wrap_iterIPNS_12basic_stringIcNS_11char_traitsIcEENS_9allocatorIcEEEEEC1B8ue170006ES7_, symObjAddr: 0xC090, symBinAddr: 0x10000DC7C, symSize: 0x34 }
  - { offsetInCU: 0x2CE7F, offset: 0x2CE7F, size: 0x8, addend: 0x0, symName: __ZNSt3__111__wrap_iterIPNS_12basic_stringIcNS_11char_traitsIcEENS_9allocatorIcEEEEEC2B8ue170006ES7_, symObjAddr: 0xC0C4, symBinAddr: 0x10000DCB0, symSize: 0x20 }
  - { offsetInCU: 0x2CEB7, offset: 0x2CEB7, size: 0x8, addend: 0x0, symName: __ZNKSt3__111__wrap_iterIPNS_12basic_stringIcNS_11char_traitsIcEENS_9allocatorIcEEEEE4baseB8ue170006Ev, symObjAddr: 0xC12C, symBinAddr: 0x10000DD18, symSize: 0x18 }
  - { offsetInCU: 0x2CEE8, offset: 0x2CEE8, size: 0x8, addend: 0x0, symName: __ZNSt3__116allocator_traitsINS_9allocatorIcEEE37select_on_container_copy_constructionB8ue170006IS2_vvEES2_RKS2_, symObjAddr: 0xC144, symBinAddr: 0x10000DD30, symSize: 0x10 }
  - { offsetInCU: 0x2CF17, offset: 0x2CF17, size: 0x8, addend: 0x0, symName: __ZNKSt3__112basic_stringIcNS_11char_traitsIcEENS_9allocatorIcEEE13get_allocatorB8ue170006Ev, symObjAddr: 0xC154, symBinAddr: 0x10000DD40, symSize: 0x24 }
  - { offsetInCU: 0x2CF3D, offset: 0x2CF3D, size: 0x8, addend: 0x0, symName: __ZNSt3__112basic_stringIcNS_11char_traitsIcEENS_9allocatorIcEEEC1B8ue170006ENS_24__uninitialized_size_tagEmRKS4_, symObjAddr: 0xC178, symBinAddr: 0x10000DD64, symSize: 0x3C }
  - { offsetInCU: 0x2CF91, offset: 0x2CF91, size: 0x8, addend: 0x0, symName: __ZNSt3__112basic_stringIcNS_11char_traitsIcEENS_9allocatorIcEEE13__get_pointerB8ue170006Ev, symObjAddr: 0xC1C8, symBinAddr: 0x10000DDB4, symSize: 0x54 }
  - { offsetInCU: 0x2CFB7, offset: 0x2CFB7, size: 0x8, addend: 0x0, symName: __ZNSt3__111char_traitsIcE4copyB8ue170006EPcPKcm, symObjAddr: 0xC21C, symBinAddr: 0x10000DE08, symSize: 0x40 }
  - { offsetInCU: 0x2CFF6, offset: 0x2CFF6, size: 0x8, addend: 0x0, symName: __ZNSt3__111char_traitsIcE6assignB8ue170006EPcmc, symObjAddr: 0xC25C, symBinAddr: 0x10000DE48, symSize: 0x44 }
  - { offsetInCU: 0x2D035, offset: 0x2D035, size: 0x8, addend: 0x0, symName: __ZNKSt3__112basic_stringIcNS_11char_traitsIcEENS_9allocatorIcEEE7__allocB8ue170006Ev, symObjAddr: 0xC2A0, symBinAddr: 0x10000DE8C, symSize: 0x24 }
  - { offsetInCU: 0x2D05B, offset: 0x2D05B, size: 0x8, addend: 0x0, symName: __ZNKSt3__117__compressed_pairINS_12basic_stringIcNS_11char_traitsIcEENS_9allocatorIcEEE5__repES5_E6secondB8ue170006Ev, symObjAddr: 0xC2C4, symBinAddr: 0x10000DEB0, symSize: 0x24 }
  - { offsetInCU: 0x2D081, offset: 0x2D081, size: 0x8, addend: 0x0, symName: __ZNKSt3__122__compressed_pair_elemINS_9allocatorIcEELi1ELb1EE5__getB8ue170006Ev, symObjAddr: 0xC2E8, symBinAddr: 0x10000DED4, symSize: 0x14 }
  - { offsetInCU: 0x2D0A7, offset: 0x2D0A7, size: 0x8, addend: 0x0, symName: __ZNSt3__112basic_stringIcNS_11char_traitsIcEENS_9allocatorIcEEEC2B8ue170006ENS_24__uninitialized_size_tagEmRKS4_, symObjAddr: 0xC2FC, symBinAddr: 0x10000DEE8, symSize: 0x110 }
  - { offsetInCU: 0x2D127, offset: 0x2D127, size: 0x8, addend: 0x0, symName: __ZNSt3__117__compressed_pairINS_12basic_stringIcNS_11char_traitsIcEENS_9allocatorIcEEE5__repES5_EC1B8ue170006INS_18__default_init_tagERKS5_EEOT_OT0_, symObjAddr: 0xC40C, symBinAddr: 0x10000DFF8, symSize: 0x3C }
  - { offsetInCU: 0x2D17F, offset: 0x2D17F, size: 0x8, addend: 0x0, symName: __ZNKSt3__112basic_stringIcNS_11char_traitsIcEENS_9allocatorIcEEE8max_sizeB8ue170006Ev, symObjAddr: 0xC448, symBinAddr: 0x10000E034, symSize: 0xAC }
  - { offsetInCU: 0x2D1D1, offset: 0x2D1D1, size: 0x8, addend: 0x0, symName: __ZNKSt3__112basic_stringIcNS_11char_traitsIcEENS_9allocatorIcEEE20__throw_length_errorB8ue170006Ev, symObjAddr: 0xC4F4, symBinAddr: 0x10000E0E0, symSize: 0x1C }
  - { offsetInCU: 0x2D1F7, offset: 0x2D1F7, size: 0x8, addend: 0x0, symName: __ZNSt3__112basic_stringIcNS_11char_traitsIcEENS_9allocatorIcEEE13__fits_in_ssoB8ue170006Em, symObjAddr: 0xC510, symBinAddr: 0x10000E0FC, symSize: 0x20 }
  - { offsetInCU: 0x2D21B, offset: 0x2D21B, size: 0x8, addend: 0x0, symName: __ZNSt3__112basic_stringIcNS_11char_traitsIcEENS_9allocatorIcEEE16__set_short_sizeB8ue170006Em, symObjAddr: 0xC530, symBinAddr: 0x10000E11C, symSize: 0x78 }
  - { offsetInCU: 0x2D250, offset: 0x2D250, size: 0x8, addend: 0x0, symName: __ZNSt3__112basic_stringIcNS_11char_traitsIcEENS_9allocatorIcEEE11__recommendB8ue170006Em, symObjAddr: 0xC5A8, symBinAddr: 0x10000E194, symSize: 0x84 }
  - { offsetInCU: 0x2D283, offset: 0x2D283, size: 0x8, addend: 0x0, symName: __ZNSt3__116allocator_traitsINS_9allocatorIcEEE8allocateB8ue170006ERS2_m, symObjAddr: 0xC62C, symBinAddr: 0x10000E218, symSize: 0x2C }
  - { offsetInCU: 0x2D2B6, offset: 0x2D2B6, size: 0x8, addend: 0x0, symName: __ZNSt3__112basic_stringIcNS_11char_traitsIcEENS_9allocatorIcEEE7__allocB8ue170006Ev, symObjAddr: 0xC658, symBinAddr: 0x10000E244, symSize: 0x24 }
  - { offsetInCU: 0x2D2DC, offset: 0x2D2DC, size: 0x8, addend: 0x0, symName: __ZNSt3__112basic_stringIcNS_11char_traitsIcEENS_9allocatorIcEEE16__begin_lifetimeB8ue170006EPcm, symObjAddr: 0xC67C, symBinAddr: 0x10000E268, symSize: 0x14 }
  - { offsetInCU: 0x2D30F, offset: 0x2D30F, size: 0x8, addend: 0x0, symName: __ZNSt3__112basic_stringIcNS_11char_traitsIcEENS_9allocatorIcEEE14__set_long_capB8ue170006Em, symObjAddr: 0xC690, symBinAddr: 0x10000E27C, symSize: 0x70 }
  - { offsetInCU: 0x2D344, offset: 0x2D344, size: 0x8, addend: 0x0, symName: __ZNSt3__112basic_stringIcNS_11char_traitsIcEENS_9allocatorIcEEE18__set_long_pointerB8ue170006EPc, symObjAddr: 0xC700, symBinAddr: 0x10000E2EC, symSize: 0x38 }
  - { offsetInCU: 0x2D379, offset: 0x2D379, size: 0x8, addend: 0x0, symName: __ZNSt3__112basic_stringIcNS_11char_traitsIcEENS_9allocatorIcEEE15__set_long_sizeB8ue170006Em, symObjAddr: 0xC738, symBinAddr: 0x10000E324, symSize: 0x38 }
  - { offsetInCU: 0x2D3AE, offset: 0x2D3AE, size: 0x8, addend: 0x0, symName: __ZNSt3__117__compressed_pairINS_12basic_stringIcNS_11char_traitsIcEENS_9allocatorIcEEE5__repES5_EC2B8ue170006INS_18__default_init_tagERKS5_EEOT_OT0_, symObjAddr: 0xC770, symBinAddr: 0x10000E35C, symSize: 0x40 }
  - { offsetInCU: 0x2D406, offset: 0x2D406, size: 0x8, addend: 0x0, symName: __ZNSt3__122__compressed_pair_elemINS_9allocatorIcEELi1ELb1EEC2B8ue170006IRKS2_vEEOT_, symObjAddr: 0xC7B0, symBinAddr: 0x10000E39C, symSize: 0x18 }
  - { offsetInCU: 0x2D448, offset: 0x2D448, size: 0x8, addend: 0x0, symName: __ZNSt3__116allocator_traitsINS_9allocatorIcEEE8max_sizeB8ue170006IS2_vvEEmRKS2_, symObjAddr: 0xC7C8, symBinAddr: 0x10000E3B4, symSize: 0x28 }
  - { offsetInCU: 0x2D474, offset: 0x2D474, size: 0x8, addend: 0x0, symName: __ZNSt3__112basic_stringIcNS_11char_traitsIcEENS_9allocatorIcEEE10__align_itB8ue170006ILm16EEEmm, symObjAddr: 0xC7F0, symBinAddr: 0x10000E3DC, symSize: 0x1C }
  - { offsetInCU: 0x2D4A2, offset: 0x2D4A2, size: 0x8, addend: 0x0, symName: __ZNSt3__19allocatorIcE8allocateB8ue170006Em, symObjAddr: 0xC80C, symBinAddr: 0x10000E3F8, symSize: 0x58 }
  - { offsetInCU: 0x2D4D6, offset: 0x2D4D6, size: 0x8, addend: 0x0, symName: __ZNSt3__117__compressed_pairINS_12basic_stringIcNS_11char_traitsIcEENS_9allocatorIcEEE5__repES5_E6secondB8ue170006Ev, symObjAddr: 0xC864, symBinAddr: 0x10000E450, symSize: 0x24 }
  - { offsetInCU: 0x2D4FC, offset: 0x2D4FC, size: 0x8, addend: 0x0, symName: __ZNSt3__122__compressed_pair_elemINS_9allocatorIcEELi1ELb1EE5__getB8ue170006Ev, symObjAddr: 0xC888, symBinAddr: 0x10000E474, symSize: 0x14 }
  - { offsetInCU: 0x2D522, offset: 0x2D522, size: 0x8, addend: 0x0, symName: __ZNSt3__112basic_stringIcNS_11char_traitsIcEENS_9allocatorIcEEE18__get_long_pointerB8ue170006Ev, symObjAddr: 0xC89C, symBinAddr: 0x10000E488, symSize: 0x28 }
  - { offsetInCU: 0x2D548, offset: 0x2D548, size: 0x8, addend: 0x0, symName: __ZNSt3__112basic_stringIcNS_11char_traitsIcEENS_9allocatorIcEEE19__get_short_pointerB8ue170006Ev, symObjAddr: 0xC8C4, symBinAddr: 0x10000E4B0, symSize: 0x28 }
  - { offsetInCU: 0x2D56E, offset: 0x2D56E, size: 0x8, addend: 0x0, symName: __ZNSt3__114pointer_traitsIPcE10pointer_toB8ue170006ERc, symObjAddr: 0xC8EC, symBinAddr: 0x10000E4D8, symSize: 0x14 }
  - { offsetInCU: 0x2D5BF, offset: 0x2D5BF, size: 0x8, addend: 0x0, symName: __ZNKSt3__114__copy_trivialclB8ue170006IKccLi0EEENS_4pairIPT_PT0_EES5_S5_S7_, symObjAddr: 0xCAFC, symBinAddr: 0x10000E6E8, symSize: 0x48 }
  - { offsetInCU: 0x2D64A, offset: 0x2D64A, size: 0x8, addend: 0x0, symName: __ZNSt3__119__unwrap_range_implIPKcS2_E8__unwrapB8ue170006ES2_S2_, symObjAddr: 0xCC08, symBinAddr: 0x10000E7F4, symSize: 0x58 }
  - { offsetInCU: 0x2D67B, offset: 0x2D67B, size: 0x8, addend: 0x0, symName: __ZNSt3__14pairIPKcS2_EC1B8ue170006IS2_S2_LPv0EEEOT_OT0_, symObjAddr: 0xCC84, symBinAddr: 0x10000E870, symSize: 0x3C }
  - { offsetInCU: 0x2D6D9, offset: 0x2D6D9, size: 0x8, addend: 0x0, symName: __ZNSt3__118__unwrap_iter_implIPKcLb1EE8__unwrapB8ue170006ES2_, symObjAddr: 0xCCC0, symBinAddr: 0x10000E8AC, symSize: 0x24 }
  - { offsetInCU: 0x2D6FC, offset: 0x2D6FC, size: 0x8, addend: 0x0, symName: __ZNSt3__14pairIPKcS2_EC2B8ue170006IS2_S2_LPv0EEEOT_OT0_, symObjAddr: 0xCCE4, symBinAddr: 0x10000E8D0, symSize: 0x34 }
  - { offsetInCU: 0x2D760, offset: 0x2D760, size: 0x8, addend: 0x0, symName: __ZNSt3__14pairIPKcPcEC1B8ue170006IRS2_S3_LPv0EEEOT_OT0_, symObjAddr: 0xCE2C, symBinAddr: 0x10000EA18, symSize: 0x3C }
  - { offsetInCU: 0x2D7BE, offset: 0x2D7BE, size: 0x8, addend: 0x0, symName: __ZNSt3__14pairIPKcPcEC2B8ue170006IRS2_S3_LPv0EEEOT_OT0_, symObjAddr: 0xCE68, symBinAddr: 0x10000EA54, symSize: 0x34 }
  - { offsetInCU: 0x2D81C, offset: 0x2D81C, size: 0x8, addend: 0x0, symName: __ZNSt3__118__unwrap_iter_implIPcLb1EE8__unwrapB8ue170006ES1_, symObjAddr: 0xCE9C, symBinAddr: 0x10000EA88, symSize: 0x24 }
  - { offsetInCU: 0x2D83F, offset: 0x2D83F, size: 0x8, addend: 0x0, symName: __ZNSt3__14pairIPKcPcEC1B8ue170006IS2_S3_LPv0EEEOT_OT0_, symObjAddr: 0xCEC0, symBinAddr: 0x10000EAAC, symSize: 0x3C }
  - { offsetInCU: 0x2D89D, offset: 0x2D89D, size: 0x8, addend: 0x0, symName: __ZNSt3__14pairIPKcPcEC2B8ue170006IS2_S3_LPv0EEEOT_OT0_, symObjAddr: 0xCEFC, symBinAddr: 0x10000EAE8, symSize: 0x34 }
  - { offsetInCU: 0x2D8FB, offset: 0x2D8FB, size: 0x8, addend: 0x0, symName: __ZNSt3__119__unwrap_range_implIPKcS2_E8__rewrapB8ue170006ES2_S2_, symObjAddr: 0xCF30, symBinAddr: 0x10000EB1C, symSize: 0x2C }
  - { offsetInCU: 0x2D92C, offset: 0x2D92C, size: 0x8, addend: 0x0, symName: __ZNSt3__118__unwrap_iter_implIPKcLb1EE8__rewrapB8ue170006ES2_S2_, symObjAddr: 0xCF98, symBinAddr: 0x10000EB84, symSize: 0x48 }
  - { offsetInCU: 0x2D95D, offset: 0x2D95D, size: 0x8, addend: 0x0, symName: __ZNSt3__118__unwrap_iter_implIPcLb1EE8__rewrapB8ue170006ES1_S1_, symObjAddr: 0xCFE0, symBinAddr: 0x10000EBCC, symSize: 0x48 }
  - { offsetInCU: 0x2D98E, offset: 0x2D98E, size: 0x8, addend: 0x0, symName: __ZNSt3__112basic_stringIcNS_11char_traitsIcEENS_9allocatorIcEEE6appendB8ue170006ERKS5_, symObjAddr: 0xD0E4, symBinAddr: 0x10000ECD0, symSize: 0x4C }
  - { offsetInCU: 0x2D9C3, offset: 0x2D9C3, size: 0x8, addend: 0x0, symName: __ZNSt3__112basic_stringIcNS_11char_traitsIcEENS_9allocatorIcEEE14__erase_to_endB8ue170006Em, symObjAddr: 0xD130, symBinAddr: 0x10000ED1C, symSize: 0x40 }
  - { offsetInCU: 0x2D9F8, offset: 0x2D9F8, size: 0x8, addend: 0x0, symName: __ZNSt3__112basic_stringIcNS_11char_traitsIcEENS_9allocatorIcEEE19__null_terminate_atB8ue170006EPcm, symObjAddr: 0xD170, symBinAddr: 0x10000ED5C, symSize: 0x50 }
  - { offsetInCU: 0x2DA3C, offset: 0x2DA3C, size: 0x8, addend: 0x0, symName: __ZNSt3__112basic_stringIcNS_11char_traitsIcEENS_9allocatorIcEEE10__set_sizeB8ue170006Em, symObjAddr: 0xD1C0, symBinAddr: 0x10000EDAC, symSize: 0x54 }
  - { offsetInCU: 0x2DA71, offset: 0x2DA71, size: 0x8, addend: 0x0, symName: __ZNSt3__111char_traitsIcE6assignB8ue170006ERcRKc, symObjAddr: 0xD214, symBinAddr: 0x10000EE00, symSize: 0x24 }
  - { offsetInCU: 0x2DABB, offset: 0x2DABB, size: 0x8, addend: 0x0, symName: __ZNSt3__15tupleIJbPKcEEC1B8ue170006IJbRA28_S1_ELi0EEEDpOT_, symObjAddr: 0xD238, symBinAddr: 0x10000EE24, symSize: 0x3C }
  - { offsetInCU: 0x2DB19, offset: 0x2DB19, size: 0x8, addend: 0x0, symName: __ZNSt3__15tupleIJbPKcEEC2B8ue170006IJbRA28_S1_ELi0EEEDpOT_, symObjAddr: 0xD274, symBinAddr: 0x10000EE60, symSize: 0x3C }
  - { offsetInCU: 0x2DB77, offset: 0x2DB77, size: 0x8, addend: 0x0, symName: __ZNSt3__112__tuple_implINS_15__tuple_indicesIJLm0ELm1EEEEJbPKcEEC1B8ue170006IJLm0ELm1EEJbS4_EJEJEJbRA28_S3_EEENS1_IJXspT_EEEENS_13__tuple_typesIJDpT0_EEENS1_IJXspT1_EEEENSA_IJDpT2_EEEDpOT3_, symObjAddr: 0xD2B0, symBinAddr: 0x10000EE9C, symSize: 0x3C }
  - { offsetInCU: 0x2DC2B, offset: 0x2DC2B, size: 0x8, addend: 0x0, symName: __ZNSt3__112__tuple_implINS_15__tuple_indicesIJLm0ELm1EEEEJbPKcEEC2B8ue170006IJLm0ELm1EEJbS4_EJEJEJbRA28_S3_EEENS1_IJXspT_EEEENS_13__tuple_typesIJDpT0_EEENS1_IJXspT1_EEEENSA_IJDpT2_EEEDpOT3_, symObjAddr: 0xD2EC, symBinAddr: 0x10000EED8, symSize: 0x48 }
  - { offsetInCU: 0x2DCDF, offset: 0x2DCDF, size: 0x8, addend: 0x0, symName: __ZNSt3__112__tuple_leafILm1EPKcLb0EEC2B8ue170006IRA28_S1_vEEOT_, symObjAddr: 0xD334, symBinAddr: 0x10000EF20, symSize: 0x20 }
  - { offsetInCU: 0x2DD22, offset: 0x2DD22, size: 0x8, addend: 0x0, symName: __ZNSt3__114basic_ifstreamIcNS_11char_traitsIcEEED2Ev, symObjAddr: 0xD354, symBinAddr: 0x10000EF40, symSize: 0x64 }
  - { offsetInCU: 0x2DD5C, offset: 0x2DD5C, size: 0x8, addend: 0x0, symName: __ZTv0_n24_NSt3__114basic_ifstreamIcNS_11char_traitsIcEEED1Ev, symObjAddr: 0xD3B8, symBinAddr: 0x10000EFA4, symSize: 0x28 }
  - { offsetInCU: 0x2DD73, offset: 0x2DD73, size: 0x8, addend: 0x0, symName: __ZNSt3__112__tuple_leafILm1ENS_12basic_stringIcNS_11char_traitsIcEENS_9allocatorIcEEEELb0EE3getB8ue170006Ev, symObjAddr: 0xD3E0, symBinAddr: 0x10000EFCC, symSize: 0x14 }
  - { offsetInCU: 0x2DD99, offset: 0x2DD99, size: 0x8, addend: 0x0, symName: __ZNSt3__112basic_stringIcNS_11char_traitsIcEENS_9allocatorIcEEEC2B8ue170006Ev, symObjAddr: 0xD3F4, symBinAddr: 0x10000EFE0, symSize: 0x44 }
  - { offsetInCU: 0x2DDC3, offset: 0x2DDC3, size: 0x8, addend: 0x0, symName: __ZN6Cenote5lowerERNSt3__112basic_stringIcNS0_11char_traitsIcEENS0_9allocatorIcEEEE, symObjAddr: 0xD438, symBinAddr: 0x10000F024, symSize: 0x80 }
  - { offsetInCU: 0x2DFB6, offset: 0x2DFB6, size: 0x8, addend: 0x0, symName: __ZN10TranslatorC1Ev, symObjAddr: 0xD4B8, symBinAddr: 0x10000F0A4, symSize: 0x2C }
  - { offsetInCU: 0x2DFE0, offset: 0x2DFE0, size: 0x8, addend: 0x0, symName: __ZN10Translator9interpretENSt3__112basic_stringIcNS0_11char_traitsIcEENS0_9allocatorIcEEEE, symObjAddr: 0xD4E4, symBinAddr: 0x10000F0D0, symSize: 0x124 }
  - { offsetInCU: 0x2E02A, offset: 0x2E02A, size: 0x8, addend: 0x0, symName: __ZNSt3__16vectorINS_12basic_stringIcNS_11char_traitsIcEENS_9allocatorIcEEEENS4_IS6_EEE5eraseB8ue170006ENS_11__wrap_iterIPKS6_EE, symObjAddr: 0xD664, symBinAddr: 0x10000F250, symSize: 0x9C }
  - { offsetInCU: 0x2E08B, offset: 0x2E08B, size: 0x8, addend: 0x0, symName: __ZNSt3__111__wrap_iterIPKNS_12basic_stringIcNS_11char_traitsIcEENS_9allocatorIcEEEEEC1B8ue170006IPS6_EERKNS0_IT_EEPNS_9enable_ifIXsr14is_convertibleISC_S8_EE5valueEvE4typeE, symObjAddr: 0xD700, symBinAddr: 0x10000F2EC, symSize: 0x3C }
  - { offsetInCU: 0x2E0D6, offset: 0x2E0D6, size: 0x8, addend: 0x0, symName: __ZN6Cenote4showENSt3__16vectorINS0_12basic_stringIcNS0_11char_traitsIcEENS0_9allocatorIcEEEENS5_IS7_EEEE, symObjAddr: 0xD73C, symBinAddr: 0x10000F328, symSize: 0x768 }
  - { offsetInCU: 0x2E285, offset: 0x2E285, size: 0x8, addend: 0x0, symName: __ZNSt3__14pairINS_6vectorINS_12basic_stringIcNS_11char_traitsIcEENS_9allocatorIcEEEENS5_IS7_EEEES7_ED1Ev, symObjAddr: 0xDEA4, symBinAddr: 0x10000FA90, symSize: 0x2C }
  - { offsetInCU: 0x2E2B1, offset: 0x2E2B1, size: 0x8, addend: 0x0, symName: __ZN10TranslatorD1Ev, symObjAddr: 0xDED0, symBinAddr: 0x10000FABC, symSize: 0x2C }
  - { offsetInCU: 0x2E2DB, offset: 0x2E2DB, size: 0x8, addend: 0x0, symName: __ZNSt3__112basic_stringIcNS_11char_traitsIcEENS_9allocatorIcEEE5beginB8ue170006Ev, symObjAddr: 0xDEFC, symBinAddr: 0x10000FAE8, symSize: 0x4C }
  - { offsetInCU: 0x2E301, offset: 0x2E301, size: 0x8, addend: 0x0, symName: __ZNSt3__112basic_stringIcNS_11char_traitsIcEENS_9allocatorIcEEE3endB8ue170006Ev, symObjAddr: 0xDF48, symBinAddr: 0x10000FB34, symSize: 0x54 }
  - { offsetInCU: 0x2E327, offset: 0x2E327, size: 0x8, addend: 0x0, symName: __ZNKSt3__111__wrap_iterIPcEdeB8ue170006Ev, symObjAddr: 0xDFD0, symBinAddr: 0x10000FBBC, symSize: 0x18 }
  - { offsetInCU: 0x2E34D, offset: 0x2E34D, size: 0x8, addend: 0x0, symName: __ZNSt3__111__wrap_iterIPcEppB8ue170006Ev, symObjAddr: 0xE00C, symBinAddr: 0x10000FBF8, symSize: 0x20 }
  - { offsetInCU: 0x2E373, offset: 0x2E373, size: 0x8, addend: 0x0, symName: __ZNSt3__112basic_stringIcNS_11char_traitsIcEENS_9allocatorIcEEE15__make_iteratorB8ue170006EPc, symObjAddr: 0xE02C, symBinAddr: 0x10000FC18, symSize: 0x30 }
  - { offsetInCU: 0x2E3A8, offset: 0x2E3A8, size: 0x8, addend: 0x0, symName: __ZNSt3__111__wrap_iterIPcEC1B8ue170006ES1_, symObjAddr: 0xE05C, symBinAddr: 0x10000FC48, symSize: 0x34 }
  - { offsetInCU: 0x2E3E0, offset: 0x2E3E0, size: 0x8, addend: 0x0, symName: __ZNSt3__111__wrap_iterIPcEC2B8ue170006ES1_, symObjAddr: 0xE090, symBinAddr: 0x10000FC7C, symSize: 0x20 }
  - { offsetInCU: 0x2E418, offset: 0x2E418, size: 0x8, addend: 0x0, symName: __ZNKSt3__111__wrap_iterIPcE4baseB8ue170006Ev, symObjAddr: 0xE0F8, symBinAddr: 0x10000FCE4, symSize: 0x18 }
  - { offsetInCU: 0x2E43E, offset: 0x2E43E, size: 0x8, addend: 0x0, symName: __ZN10TranslatorC2Ev, symObjAddr: 0xE110, symBinAddr: 0x10000FCFC, symSize: 0x90 }
  - { offsetInCU: 0x2E468, offset: 0x2E468, size: 0x8, addend: 0x0, symName: __ZN7GrammarC1Ev, symObjAddr: 0xE1A0, symBinAddr: 0x10000FD8C, symSize: 0x2C }
  - { offsetInCU: 0x2E492, offset: 0x2E492, size: 0x8, addend: 0x0, symName: __ZN7GrammarC2Ev, symObjAddr: 0xE1CC, symBinAddr: 0x10000FDB8, symSize: 0x214 }
  - { offsetInCU: 0x2E4BC, offset: 0x2E4BC, size: 0x8, addend: 0x0, symName: __ZN10Translator5lexerENSt3__112basic_stringIcNS0_11char_traitsIcEENS0_9allocatorIcEEEE, symObjAddr: 0xE3E0, symBinAddr: 0x10000FFCC, symSize: 0x218 }
  - { offsetInCU: 0x2E50F, offset: 0x2E50F, size: 0x8, addend: 0x0, symName: __ZN10Translator6parserEv, symObjAddr: 0xE5F8, symBinAddr: 0x1000101E4, symSize: 0x328 }
  - { offsetInCU: 0x2E5FC, offset: 0x2E5FC, size: 0x8, addend: 0x0, symName: __ZNSt3__14pairINS_6vectorINS_12basic_stringIcNS_11char_traitsIcEENS_9allocatorIcEEEENS5_IS7_EEEES7_EC1B8ue170006IS9_PKcLPv0EEEONS0_IT_T0_EE, symObjAddr: 0xE9A0, symBinAddr: 0x10001058C, symSize: 0x34 }
  - { offsetInCU: 0x2E64D, offset: 0x2E64D, size: 0x8, addend: 0x0, symName: __ZNSt3__14pairINS_6vectorINS_12basic_stringIcNS_11char_traitsIcEENS_9allocatorIcEEEENS5_IS7_EEEEPKcED1Ev, symObjAddr: 0xE9D4, symBinAddr: 0x1000105C0, symSize: 0x2C }
  - { offsetInCU: 0x2E6FE, offset: 0x2E6FE, size: 0x8, addend: 0x0, symName: __ZNSt3__118basic_stringstreamIcNS_11char_traitsIcEENS_9allocatorIcEEEC1B8ue170006ERKNS_12basic_stringIcS2_S4_EEj, symObjAddr: 0xEA00, symBinAddr: 0x1000105EC, symSize: 0x110 }
  - { offsetInCU: 0x2E746, offset: 0x2E746, size: 0x8, addend: 0x0, symName: __ZN7Grammar5whichENSt3__112basic_stringIcNS0_11char_traitsIcEENS0_9allocatorIcEEEE, symObjAddr: 0xEB90, symBinAddr: 0x10001077C, symSize: 0x12C }
  - { offsetInCU: 0x2E77B, offset: 0x2E77B, size: 0x8, addend: 0x0, symName: __ZNSt3__112basic_stringIcNS_11char_traitsIcEENS_9allocatorIcEEEaSB8ue170006EOS5_, symObjAddr: 0xECBC, symBinAddr: 0x1000108A8, symSize: 0x34 }
  - { offsetInCU: 0x2E7B6, offset: 0x2E7B6, size: 0x8, addend: 0x0, symName: __ZNSt3__118basic_stringstreamIcNS_11char_traitsIcEENS_9allocatorIcEEED1Ev, symObjAddr: 0xECF0, symBinAddr: 0x1000108DC, symSize: 0x40 }
  - { offsetInCU: 0x2E7E3, offset: 0x2E7E3, size: 0x8, addend: 0x0, symName: __ZNSt3__114basic_iostreamIcNS_11char_traitsIcEEEC2B8ue170006EPNS_15basic_streambufIcS2_EE, symObjAddr: 0xED30, symBinAddr: 0x10001091C, symSize: 0xAC }
  - { offsetInCU: 0x2E829, offset: 0x2E829, size: 0x8, addend: 0x0, symName: __ZNSt3__115basic_stringbufIcNS_11char_traitsIcEENS_9allocatorIcEEEC1B8ue170006ERKNS_12basic_stringIcS2_S4_EEj, symObjAddr: 0xEDDC, symBinAddr: 0x1000109C8, symSize: 0x3C }
  - { offsetInCU: 0x2E871, offset: 0x2E871, size: 0x8, addend: 0x0, symName: __ZNSt3__113basic_ostreamIcNS_11char_traitsIcEEEC2B8ue170006Ev, symObjAddr: 0xEE18, symBinAddr: 0x100010A04, symSize: 0x34 }
  - { offsetInCU: 0x2E8A8, offset: 0x2E8A8, size: 0x8, addend: 0x0, symName: __ZNSt3__115basic_stringbufIcNS_11char_traitsIcEENS_9allocatorIcEEEC2B8ue170006ERKNS_12basic_stringIcS2_S4_EEj, symObjAddr: 0xEE4C, symBinAddr: 0x100010A38, symSize: 0xB4 }
  - { offsetInCU: 0x2E8F0, offset: 0x2E8F0, size: 0x8, addend: 0x0, symName: __ZNSt3__112basic_stringIcNS_11char_traitsIcEENS_9allocatorIcEEEC1B8ue170006ERKS4_, symObjAddr: 0xEF00, symBinAddr: 0x100010AEC, symSize: 0x34 }
  - { offsetInCU: 0x2E929, offset: 0x2E929, size: 0x8, addend: 0x0, symName: __ZNSt3__112basic_stringIcNS_11char_traitsIcEENS_9allocatorIcEEEC2B8ue170006ERKS4_, symObjAddr: 0xEF34, symBinAddr: 0x100010B20, symSize: 0x48 }
  - { offsetInCU: 0x2E962, offset: 0x2E962, size: 0x8, addend: 0x0, symName: __ZN7Grammar8containsENSt3__112basic_stringIcNS0_11char_traitsIcEENS0_9allocatorIcEEEEPS6_i, symObjAddr: 0xEF7C, symBinAddr: 0x100010B68, symSize: 0xB4 }
  - { offsetInCU: 0x2E9CF, offset: 0x2E9CF, size: 0x8, addend: 0x0, symName: __ZNSt3__111char_traitsIcE7compareB8ue170006EPKcS3_m, symObjAddr: 0xF178, symBinAddr: 0x100010D64, symSize: 0x34 }
  - { offsetInCU: 0x2EA0E, offset: 0x2EA0E, size: 0x8, addend: 0x0, symName: __ZNSt3__112basic_stringIcNS_11char_traitsIcEENS_9allocatorIcEEE13__move_assignB8ue170006ERS5_NS_17integral_constantIbLb1EEE, symObjAddr: 0xF1AC, symBinAddr: 0x100010D98, symSize: 0xC8 }
  - { offsetInCU: 0x2EA51, offset: 0x2EA51, size: 0x8, addend: 0x0, symName: __ZNSt3__116allocator_traitsINS_9allocatorIcEEE10deallocateB8ue170006ERS2_Pcm, symObjAddr: 0xF274, symBinAddr: 0x100010E60, symSize: 0x34 }
  - { offsetInCU: 0x2EA93, offset: 0x2EA93, size: 0x8, addend: 0x0, symName: __ZNKSt3__112basic_stringIcNS_11char_traitsIcEENS_9allocatorIcEEE14__get_long_capB8ue170006Ev, symObjAddr: 0xF2A8, symBinAddr: 0x100010E94, symSize: 0x30 }
  - { offsetInCU: 0x2EAB9, offset: 0x2EAB9, size: 0x8, addend: 0x0, symName: __ZNSt3__112basic_stringIcNS_11char_traitsIcEENS_9allocatorIcEEE19__move_assign_allocB8ue170006ERS5_, symObjAddr: 0xF2D8, symBinAddr: 0x100010EC4, symSize: 0x2C }
  - { offsetInCU: 0x2EAEE, offset: 0x2EAEE, size: 0x8, addend: 0x0, symName: __ZNSt3__19allocatorIcE10deallocateB8ue170006EPcm, symObjAddr: 0xF304, symBinAddr: 0x100010EF0, symSize: 0x40 }
  - { offsetInCU: 0x2EB30, offset: 0x2EB30, size: 0x8, addend: 0x0, symName: __ZNSt3__112basic_stringIcNS_11char_traitsIcEENS_9allocatorIcEEE19__move_assign_allocB8ue170006ERS5_NS_17integral_constantIbLb1EEE, symObjAddr: 0xF344, symBinAddr: 0x100010F30, symSize: 0x38 }
  - { offsetInCU: 0x2EB71, offset: 0x2EB71, size: 0x8, addend: 0x0, symName: __ZNSt3__118basic_stringstreamIcNS_11char_traitsIcEENS_9allocatorIcEEED2Ev, symObjAddr: 0xF37C, symBinAddr: 0x100010F68, symSize: 0x6C }
  - { offsetInCU: 0x2EBAB, offset: 0x2EBAB, size: 0x8, addend: 0x0, symName: __ZThn16_NSt3__118basic_stringstreamIcNS_11char_traitsIcEENS_9allocatorIcEEED1Ev, symObjAddr: 0xF3E8, symBinAddr: 0x100010FD4, symSize: 0x1C }
  - { offsetInCU: 0x2EBC2, offset: 0x2EBC2, size: 0x8, addend: 0x0, symName: __ZTv0_n24_NSt3__118basic_stringstreamIcNS_11char_traitsIcEENS_9allocatorIcEEED1Ev, symObjAddr: 0xF404, symBinAddr: 0x100010FF0, symSize: 0x28 }
  - { offsetInCU: 0x2EBDF, offset: 0x2EBDF, size: 0x8, addend: 0x0, symName: __ZNSt3__115basic_stringbufIcNS_11char_traitsIcEENS_9allocatorIcEEED1Ev, symObjAddr: 0xF42C, symBinAddr: 0x100011018, symSize: 0x2C }
  - { offsetInCU: 0x2EC0C, offset: 0x2EC0C, size: 0x8, addend: 0x0, symName: __ZNSt3__115basic_stringbufIcNS_11char_traitsIcEENS_9allocatorIcEEED2Ev, symObjAddr: 0xF458, symBinAddr: 0x100011044, symSize: 0x48 }
  - { offsetInCU: 0x2EC5C, offset: 0x2EC5C, size: 0x8, addend: 0x0, symName: __ZNKSt3__113basic_istreamIcNS_11char_traitsIcEEE6sentrycvbB8ue170006Ev, symObjAddr: 0xF7BC, symBinAddr: 0x1000113A8, symSize: 0x1C }
  - { offsetInCU: 0x2EC82, offset: 0x2EC82, size: 0x8, addend: 0x0, symName: __ZNSt3__112basic_stringIcNS_11char_traitsIcEENS_9allocatorIcEEE5clearB8ue170006Ev, symObjAddr: 0xF7D8, symBinAddr: 0x1000113C4, symSize: 0x78 }
  - { offsetInCU: 0x2ECAA, offset: 0x2ECAA, size: 0x8, addend: 0x0, symName: __ZNKSt3__18ios_base5widthB8ue170006Ev, symObjAddr: 0xF850, symBinAddr: 0x10001143C, symSize: 0x18 }
  - { offsetInCU: 0x2ECD2, offset: 0x2ECD2, size: 0x8, addend: 0x0, symName: __ZNSt3__111char_traitsIcE12to_char_typeB8ue170006Ei, symObjAddr: 0xF868, symBinAddr: 0x100011454, symSize: 0x18 }
  - { offsetInCU: 0x2ECF5, offset: 0x2ECF5, size: 0x8, addend: 0x0, symName: __ZNKSt3__15ctypeIcE2isB8ue170006Ejc, symObjAddr: 0xF880, symBinAddr: 0x10001146C, symSize: 0x7C }
  - { offsetInCU: 0x2ED39, offset: 0x2ED39, size: 0x8, addend: 0x0, symName: __ZNSt3__18ios_base5widthB8ue170006El, symObjAddr: 0xF8FC, symBinAddr: 0x1000114E8, symSize: 0x2C }
  - { offsetInCU: 0x2ED7F, offset: 0x2ED7F, size: 0x8, addend: 0x0, symName: __ZNSt3__18ios_base18__setstate_nothrowB8ue170006Ej, symObjAddr: 0xF928, symBinAddr: 0x100011514, symSize: 0x64 }
  - { offsetInCU: 0x2EDB4, offset: 0x2EDB4, size: 0x8, addend: 0x0, symName: __ZNKSt3__19basic_iosIcNS_11char_traitsIcEEE10exceptionsB8ue170006Ev, symObjAddr: 0xF98C, symBinAddr: 0x100011578, symSize: 0x24 }
  - { offsetInCU: 0x2EDD9, offset: 0x2EDD9, size: 0x8, addend: 0x0, symName: __Z7isasciii, symObjAddr: 0xF9B0, symBinAddr: 0x10001159C, symSize: 0x24 }
  - { offsetInCU: 0x2EE06, offset: 0x2EE06, size: 0x8, addend: 0x0, symName: __ZNKSt3__18ios_base10exceptionsB8ue170006Ev, symObjAddr: 0xF9D4, symBinAddr: 0x1000115C0, symSize: 0x18 }
  - { offsetInCU: 0x2EE2E, offset: 0x2EE2E, size: 0x8, addend: 0x0, symName: __ZNSt3__14pairINS_6vectorINS_12basic_stringIcNS_11char_traitsIcEENS_9allocatorIcEEEENS5_IS7_EEEES7_EC1B8ue170006IRS9_RS7_LPv0EEEOT_OT0_, symObjAddr: 0xF9EC, symBinAddr: 0x1000115D8, symSize: 0x3C }
  - { offsetInCU: 0x2EE8C, offset: 0x2EE8C, size: 0x8, addend: 0x0, symName: __ZNSt3__14pairINS_6vectorINS_12basic_stringIcNS_11char_traitsIcEENS_9allocatorIcEEEENS5_IS7_EEEES7_EC2B8ue170006IRS9_RS7_LPv0EEEOT_OT0_, symObjAddr: 0xFA28, symBinAddr: 0x100011614, symSize: 0x70 }
  - { offsetInCU: 0x2EF03, offset: 0x2EF03, size: 0x8, addend: 0x0, symName: __ZNSt3__14pairINS_6vectorINS_12basic_stringIcNS_11char_traitsIcEENS_9allocatorIcEEEENS5_IS7_EEEEPKcEC1B8ue170006IRS9_RA16_SA_LPv0EEEOT_OT0_, symObjAddr: 0xFA98, symBinAddr: 0x100011684, symSize: 0x3C }
  - { offsetInCU: 0x2EF61, offset: 0x2EF61, size: 0x8, addend: 0x0, symName: __ZNSt3__14pairINS_6vectorINS_12basic_stringIcNS_11char_traitsIcEENS_9allocatorIcEEEENS5_IS7_EEEEPKcEC2B8ue170006IRS9_RA16_SA_LPv0EEEOT_OT0_, symObjAddr: 0xFAD4, symBinAddr: 0x1000116C0, symSize: 0x40 }
  - { offsetInCU: 0x2EFBF, offset: 0x2EFBF, size: 0x8, addend: 0x0, symName: __ZNSt3__14pairINS_6vectorINS_12basic_stringIcNS_11char_traitsIcEENS_9allocatorIcEEEENS5_IS7_EEEES7_EC2B8ue170006IS9_PKcLPv0EEEONS0_IT_T0_EE, symObjAddr: 0xFB14, symBinAddr: 0x100011700, symSize: 0x70 }
  - { offsetInCU: 0x2F010, offset: 0x2F010, size: 0x8, addend: 0x0, symName: __ZNSt3__14pairINS_6vectorINS_12basic_stringIcNS_11char_traitsIcEENS_9allocatorIcEEEENS5_IS7_EEEEPKcED2Ev, symObjAddr: 0xFB84, symBinAddr: 0x100011770, symSize: 0x2C }
  - { offsetInCU: 0x2F03C, offset: 0x2F03C, size: 0x8, addend: 0x0, symName: __ZNKSt3__112basic_stringIcNS_11char_traitsIcEENS_9allocatorIcEEEcvNS_17basic_string_viewIcS2_EEB8ue170006Ev, symObjAddr: 0xFC60, symBinAddr: 0x10001184C, symSize: 0x50 }
  - { offsetInCU: 0x2F062, offset: 0x2F062, size: 0x8, addend: 0x0, symName: __ZNSt3__117basic_string_viewIcNS_11char_traitsIcEEEC1B8ue170006EPKc, symObjAddr: 0xFCB0, symBinAddr: 0x10001189C, symSize: 0x34 }
  - { offsetInCU: 0x2F09B, offset: 0x2F09B, size: 0x8, addend: 0x0, symName: __ZNKSt3__117basic_string_viewIcNS_11char_traitsIcEEE4sizeB8ue170006Ev, symObjAddr: 0xFCE4, symBinAddr: 0x1000118D0, symSize: 0x18 }
  - { offsetInCU: 0x2F0C1, offset: 0x2F0C1, size: 0x8, addend: 0x0, symName: __ZNKSt3__117basic_string_viewIcNS_11char_traitsIcEEE7compareES3_, symObjAddr: 0xFCFC, symBinAddr: 0x1000118E8, symSize: 0x13C }
  - { offsetInCU: 0x2F114, offset: 0x2F114, size: 0x8, addend: 0x0, symName: __ZNKSt3__117basic_string_viewIcNS_11char_traitsIcEEE4dataB8ue170006Ev, symObjAddr: 0xFE38, symBinAddr: 0x100011A24, symSize: 0x18 }
  - { offsetInCU: 0x2F13A, offset: 0x2F13A, size: 0x8, addend: 0x0, symName: __ZNSt3__117basic_string_viewIcNS_11char_traitsIcEEEC1B8ue170006EPKcm, symObjAddr: 0xFE50, symBinAddr: 0x100011A3C, symSize: 0x3C }
  - { offsetInCU: 0x2F182, offset: 0x2F182, size: 0x8, addend: 0x0, symName: __ZNSt3__117basic_string_viewIcNS_11char_traitsIcEEEC2B8ue170006EPKcm, symObjAddr: 0xFE8C, symBinAddr: 0x100011A78, symSize: 0x2C }
  - { offsetInCU: 0x2F1CA, offset: 0x2F1CA, size: 0x8, addend: 0x0, symName: __ZNSt3__117basic_string_viewIcNS_11char_traitsIcEEEC2B8ue170006EPKc, symObjAddr: 0xFEB8, symBinAddr: 0x100011AA4, symSize: 0x44 }
  - { offsetInCU: 0x2F203, offset: 0x2F203, size: 0x8, addend: 0x0, symName: __ZNKSt3__16vectorINS_12basic_stringIcNS_11char_traitsIcEENS_9allocatorIcEEEENS4_IS6_EEE6cbeginB8ue170006Ev, symObjAddr: 0xFF68, symBinAddr: 0x100011B54, symSize: 0x2C }
  - { offsetInCU: 0x2F229, offset: 0x2F229, size: 0x8, addend: 0x0, symName: __ZNKSt3__111__wrap_iterIPKNS_12basic_stringIcNS_11char_traitsIcEENS_9allocatorIcEEEEE4baseB8ue170006Ev, symObjAddr: 0xFFD4, symBinAddr: 0x100011BC0, symSize: 0x18 }
  - { offsetInCU: 0x2F24F, offset: 0x2F24F, size: 0x8, addend: 0x0, symName: __ZNKSt3__16vectorINS_12basic_stringIcNS_11char_traitsIcEENS_9allocatorIcEEEENS4_IS6_EEE5beginB8ue170006Ev, symObjAddr: 0xFFEC, symBinAddr: 0x100011BD8, symSize: 0x30 }
  - { offsetInCU: 0x2F277, offset: 0x2F277, size: 0x8, addend: 0x0, symName: __ZNKSt3__16vectorINS_12basic_stringIcNS_11char_traitsIcEENS_9allocatorIcEEEENS4_IS6_EEE11__make_iterB8ue170006EPKS6_, symObjAddr: 0x1001C, symBinAddr: 0x100011C08, symSize: 0x30 }
  - { offsetInCU: 0x2F2AC, offset: 0x2F2AC, size: 0x8, addend: 0x0, symName: __ZNSt3__111__wrap_iterIPKNS_12basic_stringIcNS_11char_traitsIcEENS_9allocatorIcEEEEEC1B8ue170006ES8_, symObjAddr: 0x1004C, symBinAddr: 0x100011C38, symSize: 0x34 }
  - { offsetInCU: 0x2F2E4, offset: 0x2F2E4, size: 0x8, addend: 0x0, symName: __ZNSt3__111__wrap_iterIPKNS_12basic_stringIcNS_11char_traitsIcEENS_9allocatorIcEEEEEC2B8ue170006ES8_, symObjAddr: 0x10080, symBinAddr: 0x100011C6C, symSize: 0x20 }
  - { offsetInCU: 0x2F327, offset: 0x2F327, size: 0x8, addend: 0x0, symName: __ZNKSt3__111__move_loopINS_17_ClassicAlgPolicyEEclB8ue170006IPNS_12basic_stringIcNS_11char_traitsIcEENS_9allocatorIcEEEESA_SA_EENS_4pairIT_T1_EESC_T0_SD_, symObjAddr: 0x101DC, symBinAddr: 0x100011DC8, symSize: 0x90 }
  - { offsetInCU: 0x2F392, offset: 0x2F392, size: 0x8, addend: 0x0, symName: __ZNSt3__18_IterOpsINS_17_ClassicAlgPolicyEE11__iter_moveB8ue170006IRPNS_12basic_stringIcNS_11char_traitsIcEENS_9allocatorIcEEEEEENS_9enable_ifIXsr12is_referenceIDTdeclsr3stdE7declvalIRT_EEEEE5valueEDTclsr3stdE4movedeclsr3stdE7declvalISE_EEEEE4typeEOSD_, symObjAddr: 0x1026C, symBinAddr: 0x100011E58, symSize: 0x28 }
  - { offsetInCU: 0x2F3BE, offset: 0x2F3BE, size: 0x8, addend: 0x0, symName: __ZNSt3__18_IterOpsINS_17_ClassicAlgPolicyEE25__validate_iter_referenceB8ue170006IRPNS_12basic_stringIcNS_11char_traitsIcEENS_9allocatorIcEEEEEEvv, symObjAddr: 0x10294, symBinAddr: 0x100011E80, symSize: 0x4 }
  - { offsetInCU: 0x2F3DC, offset: 0x2F3DC, size: 0x8, addend: 0x0, symName: __ZNSt3__111__wrap_iterIPKNS_12basic_stringIcNS_11char_traitsIcEENS_9allocatorIcEEEEEC2B8ue170006IPS6_EERKNS0_IT_EEPNS_9enable_ifIXsr14is_convertibleISC_S8_EE5valueEvE4typeE, symObjAddr: 0x10298, symBinAddr: 0x100011E84, symSize: 0x40 }
  - { offsetInCU: 0x2F427, offset: 0x2F427, size: 0x8, addend: 0x0, symName: __ZN7HashMap10duplicatesEv, symObjAddr: 0x102D8, symBinAddr: 0x100011EC4, symSize: 0x410 }
  - { offsetInCU: 0x2F4EC, offset: 0x2F4EC, size: 0x8, addend: 0x0, symName: __ZNSt3__16vectorINS_5tupleIJNS_12basic_stringIcNS_11char_traitsIcEENS_9allocatorIcEEEEiEEENS5_IS8_EEE5beginB8ue170006Ev, symObjAddr: 0x106E8, symBinAddr: 0x1000122D4, symSize: 0x30 }
  - { offsetInCU: 0x2F514, offset: 0x2F514, size: 0x8, addend: 0x0, symName: __ZNSt3__16vectorINS_5tupleIJNS_12basic_stringIcNS_11char_traitsIcEENS_9allocatorIcEEEEiEEENS5_IS8_EEE3endB8ue170006Ev, symObjAddr: 0x10718, symBinAddr: 0x100012304, symSize: 0x30 }
  - { offsetInCU: 0x2F53C, offset: 0x2F53C, size: 0x8, addend: 0x0, symName: __ZNKSt3__111__wrap_iterIPNS_5tupleIJNS_12basic_stringIcNS_11char_traitsIcEENS_9allocatorIcEEEEiEEEEdeB8ue170006Ev, symObjAddr: 0x1077C, symBinAddr: 0x100012368, symSize: 0x18 }
  - { offsetInCU: 0x2F562, offset: 0x2F562, size: 0x8, addend: 0x0, symName: __ZNSt3__111__wrap_iterIPNS_5tupleIJNS_12basic_stringIcNS_11char_traitsIcEENS_9allocatorIcEEEEiEEEEppB8ue170006Ev, symObjAddr: 0x107E0, symBinAddr: 0x1000123CC, symSize: 0x20 }
  - { offsetInCU: 0x2F588, offset: 0x2F588, size: 0x8, addend: 0x0, symName: __ZNSt3__16vectorINS_5tupleIJNS_12basic_stringIcNS_11char_traitsIcEENS_9allocatorIcEEEEiEEENS5_IS8_EEED1B8ue170006Ev, symObjAddr: 0x10800, symBinAddr: 0x1000123EC, symSize: 0x2C }
  - { offsetInCU: 0x2F5B2, offset: 0x2F5B2, size: 0x8, addend: 0x0, symName: __ZN6Cenote9isNumericERKNSt3__112basic_stringIcNS0_11char_traitsIcEENS0_9allocatorIcEEEE, symObjAddr: 0x1082C, symBinAddr: 0x100012418, symSize: 0x1C0 }
  - { offsetInCU: 0x2F5E6, offset: 0x2F5E6, size: 0x8, addend: 0x0, symName: __ZNSt3__16vectorI4LineNS_9allocatorIS1_EEE5beginB8ue170006Ev, symObjAddr: 0x109EC, symBinAddr: 0x1000125D8, symSize: 0x30 }
  - { offsetInCU: 0x2F60E, offset: 0x2F60E, size: 0x8, addend: 0x0, symName: __ZNSt3__16vectorI4LineNS_9allocatorIS1_EEE3endB8ue170006Ev, symObjAddr: 0x10A1C, symBinAddr: 0x100012608, symSize: 0x30 }
  - { offsetInCU: 0x2F636, offset: 0x2F636, size: 0x8, addend: 0x0, symName: __ZNKSt3__111__wrap_iterIP4LineEdeB8ue170006Ev, symObjAddr: 0x10A80, symBinAddr: 0x10001266C, symSize: 0x18 }
  - { offsetInCU: 0x2F65C, offset: 0x2F65C, size: 0x8, addend: 0x0, symName: __ZNSt3__111__wrap_iterIP4LineEppB8ue170006Ev, symObjAddr: 0x10A98, symBinAddr: 0x100012684, symSize: 0x20 }
  - { offsetInCU: 0x2F682, offset: 0x2F682, size: 0x8, addend: 0x0, symName: __ZNSt3__16vectorI4LineNS_9allocatorIS1_EEEixB8ue170006Em, symObjAddr: 0x10AB8, symBinAddr: 0x1000126A4, symSize: 0x2C }
  - { offsetInCU: 0x2F6D8, offset: 0x2F6D8, size: 0x8, addend: 0x0, symName: __ZNSt3__15tupleIJNS_12basic_stringIcNS_11char_traitsIcEENS_9allocatorIcEEEEiEEC1B8ue170006IJRA5_KciELi0EEEDpOT_, symObjAddr: 0x10AE4, symBinAddr: 0x1000126D0, symSize: 0x3C }
  - { offsetInCU: 0x2F736, offset: 0x2F736, size: 0x8, addend: 0x0, symName: __ZNSt3__15tupleIJNS_12basic_stringIcNS_11char_traitsIcEENS_9allocatorIcEEEEiEED1Ev, symObjAddr: 0x10B20, symBinAddr: 0x10001270C, symSize: 0x2C }
  - { offsetInCU: 0x2F763, offset: 0x2F763, size: 0x8, addend: 0x0, symName: __ZNSt3__16vectorINS_5tupleIJNS_12basic_stringIcNS_11char_traitsIcEENS_9allocatorIcEEEEiEEENS5_IS8_EEEC1B8ue170006ESt16initializer_listIS8_E, symObjAddr: 0x10B4C, symBinAddr: 0x100012738, symSize: 0x3C }
  - { offsetInCU: 0x2F79E, offset: 0x2F79E, size: 0x8, addend: 0x0, symName: __ZNSt3__16vectorINS_5tupleIJNS_12basic_stringIcNS_11char_traitsIcEENS_9allocatorIcEEEEiEEENS5_IS8_EEEC1B8ue170006Ev, symObjAddr: 0x10B88, symBinAddr: 0x100012774, symSize: 0x2C }
  - { offsetInCU: 0x2F7C8, offset: 0x2F7C8, size: 0x8, addend: 0x0, symName: __ZNSt3__16vectorINS0_I4NodeNS_9allocatorIS1_EEEENS2_IS4_EEE5beginB8ue170006Ev, symObjAddr: 0x10BB4, symBinAddr: 0x1000127A0, symSize: 0x30 }
  - { offsetInCU: 0x2F7F0, offset: 0x2F7F0, size: 0x8, addend: 0x0, symName: __ZNSt3__16vectorINS0_I4NodeNS_9allocatorIS1_EEEENS2_IS4_EEE3endB8ue170006Ev, symObjAddr: 0x10BE4, symBinAddr: 0x1000127D0, symSize: 0x30 }
  - { offsetInCU: 0x2F818, offset: 0x2F818, size: 0x8, addend: 0x0, symName: __ZNKSt3__111__wrap_iterIPNS_6vectorI4NodeNS_9allocatorIS2_EEEEEdeB8ue170006Ev, symObjAddr: 0x10C48, symBinAddr: 0x100012834, symSize: 0x18 }
  - { offsetInCU: 0x2F83E, offset: 0x2F83E, size: 0x8, addend: 0x0, symName: __ZNSt3__16vectorI4NodeNS_9allocatorIS1_EEEixB8ue170006Em, symObjAddr: 0x10C60, symBinAddr: 0x10001284C, symSize: 0x24 }
  - { offsetInCU: 0x2F875, offset: 0x2F875, size: 0x8, addend: 0x0, symName: __ZNSt3__16vectorINS_5tupleIJNS_12basic_stringIcNS_11char_traitsIcEENS_9allocatorIcEEEEiEEENS5_IS8_EEE9push_backB8ue170006EOS8_, symObjAddr: 0x10C84, symBinAddr: 0x100012870, symSize: 0x6C }
  - { offsetInCU: 0x2F8AC, offset: 0x2F8AC, size: 0x8, addend: 0x0, symName: __ZNSt3__15tupleIJNS_12basic_stringIcNS_11char_traitsIcEENS_9allocatorIcEEEEiEEC1B8ue170006IJRS6_RiELi0EEEDpOT_, symObjAddr: 0x10CF0, symBinAddr: 0x1000128DC, symSize: 0x3C }
  - { offsetInCU: 0x2F90A, offset: 0x2F90A, size: 0x8, addend: 0x0, symName: __ZNSt3__111__wrap_iterIPNS_6vectorI4NodeNS_9allocatorIS2_EEEEEppB8ue170006Ev, symObjAddr: 0x10D2C, symBinAddr: 0x100012918, symSize: 0x20 }
  - { offsetInCU: 0x2F930, offset: 0x2F930, size: 0x8, addend: 0x0, symName: __ZNSt3__15tupleIJNS_12basic_stringIcNS_11char_traitsIcEENS_9allocatorIcEEEEiEEC2B8ue170006IJRA5_KciELi0EEEDpOT_, symObjAddr: 0x10D4C, symBinAddr: 0x100012938, symSize: 0x3C }
  - { offsetInCU: 0x2F98E, offset: 0x2F98E, size: 0x8, addend: 0x0, symName: __ZNSt3__112__tuple_implINS_15__tuple_indicesIJLm0ELm1EEEEJNS_12basic_stringIcNS_11char_traitsIcEENS_9allocatorIcEEEEiEEC1B8ue170006IJLm0ELm1EEJS8_iEJEJEJRA5_KciEEENS1_IJXspT_EEEENS_13__tuple_typesIJDpT0_EEENS1_IJXspT1_EEEENSF_IJDpT2_EEEDpOT3_, symObjAddr: 0x10D88, symBinAddr: 0x100012974, symSize: 0x3C }
  - { offsetInCU: 0x2FA42, offset: 0x2FA42, size: 0x8, addend: 0x0, symName: __ZNSt3__112__tuple_implINS_15__tuple_indicesIJLm0ELm1EEEEJNS_12basic_stringIcNS_11char_traitsIcEENS_9allocatorIcEEEEiEEC2B8ue170006IJLm0ELm1EEJS8_iEJEJEJRA5_KciEEENS1_IJXspT_EEEENS_13__tuple_typesIJDpT0_EEENS1_IJXspT1_EEEENSF_IJDpT2_EEEDpOT3_, symObjAddr: 0x10DC4, symBinAddr: 0x1000129B0, symSize: 0x48 }
  - { offsetInCU: 0x2FAF6, offset: 0x2FAF6, size: 0x8, addend: 0x0, symName: __ZNSt3__112__tuple_leafILm0ENS_12basic_stringIcNS_11char_traitsIcEENS_9allocatorIcEEEELb0EEC2B8ue170006IRA5_KcvEEOT_, symObjAddr: 0x10E0C, symBinAddr: 0x1000129F8, symSize: 0x34 }
  - { offsetInCU: 0x2FB39, offset: 0x2FB39, size: 0x8, addend: 0x0, symName: __ZNSt3__112__tuple_leafILm1EiLb0EEC2B8ue170006IivEEOT_, symObjAddr: 0x10E40, symBinAddr: 0x100012A2C, symSize: 0x24 }
  - { offsetInCU: 0x2FB7C, offset: 0x2FB7C, size: 0x8, addend: 0x0, symName: __ZNSt3__15tupleIJNS_12basic_stringIcNS_11char_traitsIcEENS_9allocatorIcEEEEiEED2Ev, symObjAddr: 0x10E64, symBinAddr: 0x100012A50, symSize: 0x2C }
  - { offsetInCU: 0x2FBA9, offset: 0x2FBA9, size: 0x8, addend: 0x0, symName: __ZNSt3__112__tuple_implINS_15__tuple_indicesIJLm0ELm1EEEEJNS_12basic_stringIcNS_11char_traitsIcEENS_9allocatorIcEEEEiEED1Ev, symObjAddr: 0x10E90, symBinAddr: 0x100012A7C, symSize: 0x2C }
  - { offsetInCU: 0x2FBD6, offset: 0x2FBD6, size: 0x8, addend: 0x0, symName: __ZNSt3__112__tuple_implINS_15__tuple_indicesIJLm0ELm1EEEEJNS_12basic_stringIcNS_11char_traitsIcEENS_9allocatorIcEEEEiEED2Ev, symObjAddr: 0x10EBC, symBinAddr: 0x100012AA8, symSize: 0x2C }
  - { offsetInCU: 0x2FC03, offset: 0x2FC03, size: 0x8, addend: 0x0, symName: __ZNSt3__112__tuple_leafILm0ENS_12basic_stringIcNS_11char_traitsIcEENS_9allocatorIcEEEELb0EED2Ev, symObjAddr: 0x10EE8, symBinAddr: 0x100012AD4, symSize: 0x2C }
  - { offsetInCU: 0x2FC30, offset: 0x2FC30, size: 0x8, addend: 0x0, symName: __ZNSt3__16vectorINS_5tupleIJNS_12basic_stringIcNS_11char_traitsIcEENS_9allocatorIcEEEEiEEENS5_IS8_EEEC2B8ue170006ESt16initializer_listIS8_E, symObjAddr: 0x10F14, symBinAddr: 0x100012B00, symSize: 0x120 }
  - { offsetInCU: 0x2FC80, offset: 0x2FC80, size: 0x8, addend: 0x0, symName: __ZNSt3__117__compressed_pairIPNS_5tupleIJNS_12basic_stringIcNS_11char_traitsIcEENS_9allocatorIcEEEEiEEENS5_IS8_EEEC1B8ue170006IDnNS_18__default_init_tagEEEOT_OT0_, symObjAddr: 0x11034, symBinAddr: 0x100012C20, symSize: 0x3C }
  - { offsetInCU: 0x2FCD8, offset: 0x2FCD8, size: 0x8, addend: 0x0, symName: __ZNSt3__16vectorINS_5tupleIJNS_12basic_stringIcNS_11char_traitsIcEENS_9allocatorIcEEEEiEEENS5_IS8_EEE16__destroy_vectorC1B8ue170006ERSA_, symObjAddr: 0x110B0, symBinAddr: 0x100012C9C, symSize: 0x34 }
  - { offsetInCU: 0x2FD11, offset: 0x2FD11, size: 0x8, addend: 0x0, symName: __ZNKSt16initializer_listINSt3__15tupleIJNS0_12basic_stringIcNS0_11char_traitsIcEENS0_9allocatorIcEEEEiEEEE4sizeB8ue170006Ev, symObjAddr: 0x110E4, symBinAddr: 0x100012CD0, symSize: 0x18 }
  - { offsetInCU: 0x2FD37, offset: 0x2FD37, size: 0x8, addend: 0x0, symName: __ZNSt3__16vectorINS_5tupleIJNS_12basic_stringIcNS_11char_traitsIcEENS_9allocatorIcEEEEiEEENS5_IS8_EEE11__vallocateB8ue170006Em, symObjAddr: 0x110FC, symBinAddr: 0x100012CE8, symSize: 0xAC }
  - { offsetInCU: 0x2FD7B, offset: 0x2FD7B, size: 0x8, addend: 0x0, symName: __ZNSt3__16vectorINS_5tupleIJNS_12basic_stringIcNS_11char_traitsIcEENS_9allocatorIcEEEEiEEENS5_IS8_EEE18__construct_at_endIPKS8_SD_EEvT_T0_m, symObjAddr: 0x111A8, symBinAddr: 0x100012D94, symSize: 0x8C }
  - { offsetInCU: 0x2FDF1, offset: 0x2FDF1, size: 0x8, addend: 0x0, symName: __ZNKSt16initializer_listINSt3__15tupleIJNS0_12basic_stringIcNS0_11char_traitsIcEENS0_9allocatorIcEEEEiEEEE5beginB8ue170006Ev, symObjAddr: 0x11234, symBinAddr: 0x100012E20, symSize: 0x18 }
  - { offsetInCU: 0x2FE17, offset: 0x2FE17, size: 0x8, addend: 0x0, symName: __ZNKSt16initializer_listINSt3__15tupleIJNS0_12basic_stringIcNS0_11char_traitsIcEENS0_9allocatorIcEEEEiEEEE3endB8ue170006Ev, symObjAddr: 0x1124C, symBinAddr: 0x100012E38, symSize: 0x20 }
  - { offsetInCU: 0x2FE3D, offset: 0x2FE3D, size: 0x8, addend: 0x0, symName: __ZNSt3__128__exception_guard_exceptionsINS_6vectorINS_5tupleIJNS_12basic_stringIcNS_11char_traitsIcEENS_9allocatorIcEEEEiEEENS6_IS9_EEE16__destroy_vectorEE10__completeB8ue170006Ev, symObjAddr: 0x1126C, symBinAddr: 0x100012E58, symSize: 0x1C }
  - { offsetInCU: 0x2FE63, offset: 0x2FE63, size: 0x8, addend: 0x0, symName: __ZNSt3__128__exception_guard_exceptionsINS_6vectorINS_5tupleIJNS_12basic_stringIcNS_11char_traitsIcEENS_9allocatorIcEEEEiEEENS6_IS9_EEE16__destroy_vectorEED1B8ue170006Ev, symObjAddr: 0x11288, symBinAddr: 0x100012E74, symSize: 0x2C }
  - { offsetInCU: 0x2FE8D, offset: 0x2FE8D, size: 0x8, addend: 0x0, symName: __ZNSt3__117__compressed_pairIPNS_5tupleIJNS_12basic_stringIcNS_11char_traitsIcEENS_9allocatorIcEEEEiEEENS5_IS8_EEEC2B8ue170006IDnNS_18__default_init_tagEEEOT_OT0_, symObjAddr: 0x112B4, symBinAddr: 0x100012EA0, symSize: 0x40 }
  - { offsetInCU: 0x2FEE5, offset: 0x2FEE5, size: 0x8, addend: 0x0, symName: __ZNSt3__122__compressed_pair_elemIPNS_5tupleIJNS_12basic_stringIcNS_11char_traitsIcEENS_9allocatorIcEEEEiEEELi0ELb0EEC2B8ue170006IDnvEEOT_, symObjAddr: 0x112F4, symBinAddr: 0x100012EE0, symSize: 0x1C }
  - { offsetInCU: 0x2FF27, offset: 0x2FF27, size: 0x8, addend: 0x0, symName: __ZNSt3__122__compressed_pair_elemINS_9allocatorINS_5tupleIJNS_12basic_stringIcNS_11char_traitsIcEENS1_IcEEEEiEEEEELi1ELb1EEC2B8ue170006ENS_18__default_init_tagE, symObjAddr: 0x11310, symBinAddr: 0x100012EFC, symSize: 0x2C }
  - { offsetInCU: 0x2FF5B, offset: 0x2FF5B, size: 0x8, addend: 0x0, symName: __ZNSt3__19allocatorINS_5tupleIJNS_12basic_stringIcNS_11char_traitsIcEENS0_IcEEEEiEEEEC2B8ue170006Ev, symObjAddr: 0x1133C, symBinAddr: 0x100012F28, symSize: 0x2C }
  - { offsetInCU: 0x2FF85, offset: 0x2FF85, size: 0x8, addend: 0x0, symName: __ZNSt3__116__non_trivial_ifILb1ENS_9allocatorINS_5tupleIJNS_12basic_stringIcNS_11char_traitsIcEENS1_IcEEEEiEEEEEEC2B8ue170006Ev, symObjAddr: 0x11368, symBinAddr: 0x100012F54, symSize: 0x14 }
  - { offsetInCU: 0x2FFAF, offset: 0x2FFAF, size: 0x8, addend: 0x0, symName: __ZNSt3__128__exception_guard_exceptionsINS_6vectorINS_5tupleIJNS_12basic_stringIcNS_11char_traitsIcEENS_9allocatorIcEEEEiEEENS6_IS9_EEE16__destroy_vectorEEC1B8ue170006ESC_, symObjAddr: 0x1137C, symBinAddr: 0x100012F68, symSize: 0x34 }
  - { offsetInCU: 0x2FFE7, offset: 0x2FFE7, size: 0x8, addend: 0x0, symName: __ZNSt3__128__exception_guard_exceptionsINS_6vectorINS_5tupleIJNS_12basic_stringIcNS_11char_traitsIcEENS_9allocatorIcEEEEiEEENS6_IS9_EEE16__destroy_vectorEEC2B8ue170006ESC_, symObjAddr: 0x113B0, symBinAddr: 0x100012F9C, symSize: 0x24 }
  - { offsetInCU: 0x3001F, offset: 0x3001F, size: 0x8, addend: 0x0, symName: __ZNSt3__16vectorINS_5tupleIJNS_12basic_stringIcNS_11char_traitsIcEENS_9allocatorIcEEEEiEEENS5_IS8_EEE16__destroy_vectorC2B8ue170006ERSA_, symObjAddr: 0x113D4, symBinAddr: 0x100012FC0, symSize: 0x20 }
  - { offsetInCU: 0x30058, offset: 0x30058, size: 0x8, addend: 0x0, symName: __ZNKSt3__16vectorINS_5tupleIJNS_12basic_stringIcNS_11char_traitsIcEENS_9allocatorIcEEEEiEEENS5_IS8_EEE8max_sizeEv, symObjAddr: 0x113F4, symBinAddr: 0x100012FE0, symSize: 0x60 }
  - { offsetInCU: 0x30080, offset: 0x30080, size: 0x8, addend: 0x0, symName: __ZNKSt3__16vectorINS_5tupleIJNS_12basic_stringIcNS_11char_traitsIcEENS_9allocatorIcEEEEiEEENS5_IS8_EEE20__throw_length_errorB8ue170006Ev, symObjAddr: 0x11454, symBinAddr: 0x100013040, symSize: 0x1C }
  - { offsetInCU: 0x300A6, offset: 0x300A6, size: 0x8, addend: 0x0, symName: __ZNSt3__16vectorINS_5tupleIJNS_12basic_stringIcNS_11char_traitsIcEENS_9allocatorIcEEEEiEEENS5_IS8_EEE7__allocB8ue170006Ev, symObjAddr: 0x114AC, symBinAddr: 0x100013098, symSize: 0x28 }
  - { offsetInCU: 0x300CC, offset: 0x300CC, size: 0x8, addend: 0x0, symName: __ZNSt3__16vectorINS_5tupleIJNS_12basic_stringIcNS_11char_traitsIcEENS_9allocatorIcEEEEiEEENS5_IS8_EEE9__end_capB8ue170006Ev, symObjAddr: 0x114D4, symBinAddr: 0x1000130C0, symSize: 0x28 }
  - { offsetInCU: 0x300F2, offset: 0x300F2, size: 0x8, addend: 0x0, symName: __ZNKSt3__16vectorINS_5tupleIJNS_12basic_stringIcNS_11char_traitsIcEENS_9allocatorIcEEEEiEEENS5_IS8_EEE14__annotate_newB8ue170006Em, symObjAddr: 0x114FC, symBinAddr: 0x1000130E8, symSize: 0xAC }
  - { offsetInCU: 0x30132, offset: 0x30132, size: 0x8, addend: 0x0, symName: __ZNSt3__116allocator_traitsINS_9allocatorINS_5tupleIJNS_12basic_stringIcNS_11char_traitsIcEENS1_IcEEEEiEEEEEE8max_sizeB8ue170006IS9_vvEEmRKS9_, symObjAddr: 0x115A8, symBinAddr: 0x100013194, symSize: 0x28 }
  - { offsetInCU: 0x3015E, offset: 0x3015E, size: 0x8, addend: 0x0, symName: __ZNKSt3__16vectorINS_5tupleIJNS_12basic_stringIcNS_11char_traitsIcEENS_9allocatorIcEEEEiEEENS5_IS8_EEE7__allocB8ue170006Ev, symObjAddr: 0x115D0, symBinAddr: 0x1000131BC, symSize: 0x28 }
  - { offsetInCU: 0x30184, offset: 0x30184, size: 0x8, addend: 0x0, symName: __ZNKSt3__117__compressed_pairIPNS_5tupleIJNS_12basic_stringIcNS_11char_traitsIcEENS_9allocatorIcEEEEiEEENS5_IS8_EEE6secondB8ue170006Ev, symObjAddr: 0x115F8, symBinAddr: 0x1000131E4, symSize: 0x24 }
  - { offsetInCU: 0x301AA, offset: 0x301AA, size: 0x8, addend: 0x0, symName: __ZNKSt3__122__compressed_pair_elemINS_9allocatorINS_5tupleIJNS_12basic_stringIcNS_11char_traitsIcEENS1_IcEEEEiEEEEELi1ELb1EE5__getB8ue170006Ev, symObjAddr: 0x1161C, symBinAddr: 0x100013208, symSize: 0x14 }
  - { offsetInCU: 0x301D0, offset: 0x301D0, size: 0x8, addend: 0x0, symName: __ZNSt3__19allocatorINS_5tupleIJNS_12basic_stringIcNS_11char_traitsIcEENS0_IcEEEEiEEEE17allocate_at_leastB8ue170006Em, symObjAddr: 0x1166C, symBinAddr: 0x100013258, symSize: 0x40 }
  - { offsetInCU: 0x30204, offset: 0x30204, size: 0x8, addend: 0x0, symName: __ZNSt3__19allocatorINS_5tupleIJNS_12basic_stringIcNS_11char_traitsIcEENS0_IcEEEEiEEEE8allocateB8ue170006Em, symObjAddr: 0x116AC, symBinAddr: 0x100013298, symSize: 0x58 }
  - { offsetInCU: 0x30238, offset: 0x30238, size: 0x8, addend: 0x0, symName: __ZNSt3__117__compressed_pairIPNS_5tupleIJNS_12basic_stringIcNS_11char_traitsIcEENS_9allocatorIcEEEEiEEENS5_IS8_EEE6secondB8ue170006Ev, symObjAddr: 0x11704, symBinAddr: 0x1000132F0, symSize: 0x24 }
  - { offsetInCU: 0x3025E, offset: 0x3025E, size: 0x8, addend: 0x0, symName: __ZNSt3__122__compressed_pair_elemINS_9allocatorINS_5tupleIJNS_12basic_stringIcNS_11char_traitsIcEENS1_IcEEEEiEEEEELi1ELb1EE5__getB8ue170006Ev, symObjAddr: 0x11728, symBinAddr: 0x100013314, symSize: 0x14 }
  - { offsetInCU: 0x30284, offset: 0x30284, size: 0x8, addend: 0x0, symName: __ZNSt3__117__compressed_pairIPNS_5tupleIJNS_12basic_stringIcNS_11char_traitsIcEENS_9allocatorIcEEEEiEEENS5_IS8_EEE5firstB8ue170006Ev, symObjAddr: 0x1173C, symBinAddr: 0x100013328, symSize: 0x24 }
  - { offsetInCU: 0x302AA, offset: 0x302AA, size: 0x8, addend: 0x0, symName: __ZNSt3__122__compressed_pair_elemIPNS_5tupleIJNS_12basic_stringIcNS_11char_traitsIcEENS_9allocatorIcEEEEiEEELi0ELb0EE5__getB8ue170006Ev, symObjAddr: 0x11760, symBinAddr: 0x10001334C, symSize: 0x14 }
  - { offsetInCU: 0x302D0, offset: 0x302D0, size: 0x8, addend: 0x0, symName: __ZNKSt3__16vectorINS_5tupleIJNS_12basic_stringIcNS_11char_traitsIcEENS_9allocatorIcEEEEiEEENS5_IS8_EEE31__annotate_contiguous_containerB8ue170006EPKvSC_SC_SC_, symObjAddr: 0x11774, symBinAddr: 0x100013360, symSize: 0x20 }
  - { offsetInCU: 0x30326, offset: 0x30326, size: 0x8, addend: 0x0, symName: __ZNKSt3__16vectorINS_5tupleIJNS_12basic_stringIcNS_11char_traitsIcEENS_9allocatorIcEEEEiEEENS5_IS8_EEE4dataB8ue170006Ev, symObjAddr: 0x11794, symBinAddr: 0x100013380, symSize: 0x28 }
  - { offsetInCU: 0x3034C, offset: 0x3034C, size: 0x8, addend: 0x0, symName: __ZNKSt3__16vectorINS_5tupleIJNS_12basic_stringIcNS_11char_traitsIcEENS_9allocatorIcEEEEiEEENS5_IS8_EEE8capacityB8ue170006Ev, symObjAddr: 0x117BC, symBinAddr: 0x1000133A8, symSize: 0x40 }
  - { offsetInCU: 0x30372, offset: 0x30372, size: 0x8, addend: 0x0, symName: __ZNKSt3__16vectorINS_5tupleIJNS_12basic_stringIcNS_11char_traitsIcEENS_9allocatorIcEEEEiEEENS5_IS8_EEE9__end_capB8ue170006Ev, symObjAddr: 0x11810, symBinAddr: 0x1000133FC, symSize: 0x28 }
  - { offsetInCU: 0x30398, offset: 0x30398, size: 0x8, addend: 0x0, symName: __ZNKSt3__117__compressed_pairIPNS_5tupleIJNS_12basic_stringIcNS_11char_traitsIcEENS_9allocatorIcEEEEiEEENS5_IS8_EEE5firstB8ue170006Ev, symObjAddr: 0x11838, symBinAddr: 0x100013424, symSize: 0x24 }
  - { offsetInCU: 0x303BE, offset: 0x303BE, size: 0x8, addend: 0x0, symName: __ZNKSt3__122__compressed_pair_elemIPNS_5tupleIJNS_12basic_stringIcNS_11char_traitsIcEENS_9allocatorIcEEEEiEEELi0ELb0EE5__getB8ue170006Ev, symObjAddr: 0x1185C, symBinAddr: 0x100013448, symSize: 0x14 }
  - { offsetInCU: 0x30400, offset: 0x30400, size: 0x8, addend: 0x0, symName: __ZNSt3__16vectorINS_5tupleIJNS_12basic_stringIcNS_11char_traitsIcEENS_9allocatorIcEEEEiEEENS5_IS8_EEE21_ConstructTransactionC1B8ue170006ERSA_m, symObjAddr: 0x11870, symBinAddr: 0x10001345C, symSize: 0x3C }
  - { offsetInCU: 0x30448, offset: 0x30448, size: 0x8, addend: 0x0, symName: __ZNSt3__16vectorINS_5tupleIJNS_12basic_stringIcNS_11char_traitsIcEENS_9allocatorIcEEEEiEEENS5_IS8_EEE21_ConstructTransactionD1B8ue170006Ev, symObjAddr: 0x1192C, symBinAddr: 0x100013518, symSize: 0x2C }
  - { offsetInCU: 0x30472, offset: 0x30472, size: 0x8, addend: 0x0, symName: __ZNSt3__16vectorINS_5tupleIJNS_12basic_stringIcNS_11char_traitsIcEENS_9allocatorIcEEEEiEEENS5_IS8_EEE21_ConstructTransactionC2B8ue170006ERSA_m, symObjAddr: 0x11958, symBinAddr: 0x100013544, symSize: 0x44 }
  - { offsetInCU: 0x304DD, offset: 0x304DD, size: 0x8, addend: 0x0, symName: __ZNSt3__119__unwrap_range_implIPKNS_5tupleIJNS_12basic_stringIcNS_11char_traitsIcEENS_9allocatorIcEEEEiEEESA_E8__unwrapB8ue170006ESA_SA_, symObjAddr: 0x11B2C, symBinAddr: 0x100013718, symSize: 0x58 }
  - { offsetInCU: 0x30514, offset: 0x30514, size: 0x8, addend: 0x0, symName: __ZNSt3__14pairIPKNS_5tupleIJNS_12basic_stringIcNS_11char_traitsIcEENS_9allocatorIcEEEEiEEESA_EC1B8ue170006ISA_SA_LPv0EEEOT_OT0_, symObjAddr: 0x11BA8, symBinAddr: 0x100013794, symSize: 0x3C }
  - { offsetInCU: 0x30572, offset: 0x30572, size: 0x8, addend: 0x0, symName: __ZNSt3__118__unwrap_iter_implIPKNS_5tupleIJNS_12basic_stringIcNS_11char_traitsIcEENS_9allocatorIcEEEEiEEELb1EE8__unwrapB8ue170006ESA_, symObjAddr: 0x11BE4, symBinAddr: 0x1000137D0, symSize: 0x24 }
  - { offsetInCU: 0x30595, offset: 0x30595, size: 0x8, addend: 0x0, symName: __ZNSt3__14pairIPKNS_5tupleIJNS_12basic_stringIcNS_11char_traitsIcEENS_9allocatorIcEEEEiEEESA_EC2B8ue170006ISA_SA_LPv0EEEOT_OT0_, symObjAddr: 0x11C1C, symBinAddr: 0x100013808, symSize: 0x34 }
  - { offsetInCU: 0x305F3, offset: 0x305F3, size: 0x8, addend: 0x0, symName: __ZNSt3__129_AllocatorDestroyRangeReverseINS_9allocatorINS_5tupleIJNS_12basic_stringIcNS_11char_traitsIcEENS1_IcEEEEiEEEEEPS8_EC1B8ue170006ERS9_RSA_SD_, symObjAddr: 0x11C9C, symBinAddr: 0x100013888, symSize: 0x44 }
  - { offsetInCU: 0x3064A, offset: 0x3064A, size: 0x8, addend: 0x0, symName: __ZNSt3__116allocator_traitsINS_9allocatorINS_5tupleIJNS_12basic_stringIcNS_11char_traitsIcEENS1_IcEEEEiEEEEEE9constructB8ue170006IS8_JRKS8_EvvEEvRS9_PT_DpOT0_, symObjAddr: 0x11CE0, symBinAddr: 0x1000138CC, symSize: 0x30 }
  - { offsetInCU: 0x3069F, offset: 0x3069F, size: 0x8, addend: 0x0, symName: __ZNSt3__128__exception_guard_exceptionsINS_29_AllocatorDestroyRangeReverseINS_9allocatorINS_5tupleIJNS_12basic_stringIcNS_11char_traitsIcEENS2_IcEEEEiEEEEEPS9_EEE10__completeB8ue170006Ev, symObjAddr: 0x11D10, symBinAddr: 0x1000138FC, symSize: 0x1C }
  - { offsetInCU: 0x306C5, offset: 0x306C5, size: 0x8, addend: 0x0, symName: __ZNSt3__128__exception_guard_exceptionsINS_29_AllocatorDestroyRangeReverseINS_9allocatorINS_5tupleIJNS_12basic_stringIcNS_11char_traitsIcEENS2_IcEEEEiEEEEEPS9_EEED1B8ue170006Ev, symObjAddr: 0x11D2C, symBinAddr: 0x100013918, symSize: 0x2C }
  - { offsetInCU: 0x306EF, offset: 0x306EF, size: 0x8, addend: 0x0, symName: __ZNSt3__128__exception_guard_exceptionsINS_29_AllocatorDestroyRangeReverseINS_9allocatorINS_5tupleIJNS_12basic_stringIcNS_11char_traitsIcEENS2_IcEEEEiEEEEEPS9_EEEC1B8ue170006ESC_, symObjAddr: 0x11D58, symBinAddr: 0x100013944, symSize: 0x34 }
  - { offsetInCU: 0x30728, offset: 0x30728, size: 0x8, addend: 0x0, symName: __ZNSt3__128__exception_guard_exceptionsINS_29_AllocatorDestroyRangeReverseINS_9allocatorINS_5tupleIJNS_12basic_stringIcNS_11char_traitsIcEENS2_IcEEEEiEEEEEPS9_EEEC2B8ue170006ESC_, symObjAddr: 0x11D8C, symBinAddr: 0x100013978, symSize: 0x30 }
  - { offsetInCU: 0x30761, offset: 0x30761, size: 0x8, addend: 0x0, symName: __ZNSt3__129_AllocatorDestroyRangeReverseINS_9allocatorINS_5tupleIJNS_12basic_stringIcNS_11char_traitsIcEENS1_IcEEEEiEEEEEPS8_EC2B8ue170006ERS9_RSA_SD_, symObjAddr: 0x11DBC, symBinAddr: 0x1000139A8, symSize: 0x38 }
  - { offsetInCU: 0x307B8, offset: 0x307B8, size: 0x8, addend: 0x0, symName: __ZNSt3__15tupleIJNS_12basic_stringIcNS_11char_traitsIcEENS_9allocatorIcEEEEiEEC1ERKS7_, symObjAddr: 0x11E30, symBinAddr: 0x100013A1C, symSize: 0x34 }
  - { offsetInCU: 0x307EE, offset: 0x307EE, size: 0x8, addend: 0x0, symName: __ZNSt3__15tupleIJNS_12basic_stringIcNS_11char_traitsIcEENS_9allocatorIcEEEEiEEC2ERKS7_, symObjAddr: 0x11E64, symBinAddr: 0x100013A50, symSize: 0x34 }
  - { offsetInCU: 0x30824, offset: 0x30824, size: 0x8, addend: 0x0, symName: __ZNSt3__112__tuple_implINS_15__tuple_indicesIJLm0ELm1EEEEJNS_12basic_stringIcNS_11char_traitsIcEENS_9allocatorIcEEEEiEEC1ERKS9_, symObjAddr: 0x11E98, symBinAddr: 0x100013A84, symSize: 0x34 }
  - { offsetInCU: 0x3085A, offset: 0x3085A, size: 0x8, addend: 0x0, symName: __ZNSt3__112__tuple_implINS_15__tuple_indicesIJLm0ELm1EEEEJNS_12basic_stringIcNS_11char_traitsIcEENS_9allocatorIcEEEEiEEC2ERKS9_, symObjAddr: 0x11ECC, symBinAddr: 0x100013AB8, symSize: 0x40 }
  - { offsetInCU: 0x30890, offset: 0x30890, size: 0x8, addend: 0x0, symName: __ZNSt3__112__tuple_leafILm0ENS_12basic_stringIcNS_11char_traitsIcEENS_9allocatorIcEEEELb0EEC2B8ue170006ERKS7_, symObjAddr: 0x11F0C, symBinAddr: 0x100013AF8, symSize: 0x34 }
  - { offsetInCU: 0x308C9, offset: 0x308C9, size: 0x8, addend: 0x0, symName: __ZNSt3__128__exception_guard_exceptionsINS_29_AllocatorDestroyRangeReverseINS_9allocatorINS_5tupleIJNS_12basic_stringIcNS_11char_traitsIcEENS2_IcEEEEiEEEEEPS9_EEED2B8ue170006Ev, symObjAddr: 0x11F40, symBinAddr: 0x100013B2C, symSize: 0x50 }
  - { offsetInCU: 0x308F3, offset: 0x308F3, size: 0x8, addend: 0x0, symName: __ZNKSt3__129_AllocatorDestroyRangeReverseINS_9allocatorINS_5tupleIJNS_12basic_stringIcNS_11char_traitsIcEENS1_IcEEEEiEEEEEPS8_EclB8ue170006Ev, symObjAddr: 0x11F90, symBinAddr: 0x100013B7C, symSize: 0x68 }
  - { offsetInCU: 0x30919, offset: 0x30919, size: 0x8, addend: 0x0, symName: __ZNSt3__116reverse_iteratorIPNS_5tupleIJNS_12basic_stringIcNS_11char_traitsIcEENS_9allocatorIcEEEEiEEEEC1B8ue170006ES9_, symObjAddr: 0x12068, symBinAddr: 0x100013C54, symSize: 0x34 }
  - { offsetInCU: 0x30951, offset: 0x30951, size: 0x8, addend: 0x0, symName: __ZNSt3__116allocator_traitsINS_9allocatorINS_5tupleIJNS_12basic_stringIcNS_11char_traitsIcEENS1_IcEEEEiEEEEEE7destroyB8ue170006IS8_vvEEvRS9_PT_, symObjAddr: 0x120E4, symBinAddr: 0x100013CD0, symSize: 0x28 }
  - { offsetInCU: 0x3098C, offset: 0x3098C, size: 0x8, addend: 0x0, symName: __ZNSt3__116reverse_iteratorIPNS_5tupleIJNS_12basic_stringIcNS_11char_traitsIcEENS_9allocatorIcEEEEiEEEEppB8ue170006Ev, symObjAddr: 0x12130, symBinAddr: 0x100013D1C, symSize: 0x20 }
  - { offsetInCU: 0x309B2, offset: 0x309B2, size: 0x8, addend: 0x0, symName: __ZNKSt3__116reverse_iteratorIPNS_5tupleIJNS_12basic_stringIcNS_11char_traitsIcEENS_9allocatorIcEEEEiEEEE4baseB8ue170006Ev, symObjAddr: 0x12150, symBinAddr: 0x100013D3C, symSize: 0x18 }
  - { offsetInCU: 0x309DE, offset: 0x309DE, size: 0x8, addend: 0x0, symName: __ZNSt3__119__to_address_helperINS_16reverse_iteratorIPNS_5tupleIJNS_12basic_stringIcNS_11char_traitsIcEENS_9allocatorIcEEEEiEEEEEvE6__callB8ue170006ERKSB_, symObjAddr: 0x121B0, symBinAddr: 0x100013D9C, symSize: 0x38 }
  - { offsetInCU: 0x30A01, offset: 0x30A01, size: 0x8, addend: 0x0, symName: __ZNKSt3__116reverse_iteratorIPNS_5tupleIJNS_12basic_stringIcNS_11char_traitsIcEENS_9allocatorIcEEEEiEEEEptB8ue170006Ev, symObjAddr: 0x121E8, symBinAddr: 0x100013DD4, symSize: 0x2C }
  - { offsetInCU: 0x30A27, offset: 0x30A27, size: 0x8, addend: 0x0, symName: __ZNSt3__116reverse_iteratorIPNS_5tupleIJNS_12basic_stringIcNS_11char_traitsIcEENS_9allocatorIcEEEEiEEEEC2B8ue170006ES9_, symObjAddr: 0x122B0, symBinAddr: 0x100013E9C, symSize: 0x28 }
  - { offsetInCU: 0x30A5F, offset: 0x30A5F, size: 0x8, addend: 0x0, symName: __ZNSt3__118__unwrap_iter_implIPNS_5tupleIJNS_12basic_stringIcNS_11char_traitsIcEENS_9allocatorIcEEEEiEEELb1EE8__unwrapB8ue170006ES9_, symObjAddr: 0x122D8, symBinAddr: 0x100013EC4, symSize: 0x24 }
  - { offsetInCU: 0x30A82, offset: 0x30A82, size: 0x8, addend: 0x0, symName: __ZNSt3__118__unwrap_iter_implIPNS_5tupleIJNS_12basic_stringIcNS_11char_traitsIcEENS_9allocatorIcEEEEiEEELb1EE8__rewrapB8ue170006ES9_S9_, symObjAddr: 0x122FC, symBinAddr: 0x100013EE8, symSize: 0x50 }
  - { offsetInCU: 0x30AB3, offset: 0x30AB3, size: 0x8, addend: 0x0, symName: __ZNSt3__16vectorINS_5tupleIJNS_12basic_stringIcNS_11char_traitsIcEENS_9allocatorIcEEEEiEEENS5_IS8_EEE21_ConstructTransactionD2B8ue170006Ev, symObjAddr: 0x1234C, symBinAddr: 0x100013F38, symSize: 0x20 }
  - { offsetInCU: 0x30ADD, offset: 0x30ADD, size: 0x8, addend: 0x0, symName: __ZNSt3__128__exception_guard_exceptionsINS_6vectorINS_5tupleIJNS_12basic_stringIcNS_11char_traitsIcEENS_9allocatorIcEEEEiEEENS6_IS9_EEE16__destroy_vectorEED2B8ue170006Ev, symObjAddr: 0x1236C, symBinAddr: 0x100013F58, symSize: 0x50 }
  - { offsetInCU: 0x30B07, offset: 0x30B07, size: 0x8, addend: 0x0, symName: __ZNSt3__16vectorINS_5tupleIJNS_12basic_stringIcNS_11char_traitsIcEENS_9allocatorIcEEEEiEEENS5_IS8_EEE16__destroy_vectorclB8ue170006Ev, symObjAddr: 0x123BC, symBinAddr: 0x100013FA8, symSize: 0x90 }
  - { offsetInCU: 0x30B2D, offset: 0x30B2D, size: 0x8, addend: 0x0, symName: __ZNSt3__16vectorINS_5tupleIJNS_12basic_stringIcNS_11char_traitsIcEENS_9allocatorIcEEEEiEEENS5_IS8_EEE7__clearB8ue170006Ev, symObjAddr: 0x1244C, symBinAddr: 0x100014038, symSize: 0x28 }
  - { offsetInCU: 0x30B53, offset: 0x30B53, size: 0x8, addend: 0x0, symName: __ZNKSt3__16vectorINS_5tupleIJNS_12basic_stringIcNS_11char_traitsIcEENS_9allocatorIcEEEEiEEENS5_IS8_EEE17__annotate_deleteB8ue170006Ev, symObjAddr: 0x12474, symBinAddr: 0x100014060, symSize: 0xB8 }
  - { offsetInCU: 0x30B79, offset: 0x30B79, size: 0x8, addend: 0x0, symName: __ZNSt3__116allocator_traitsINS_9allocatorINS_5tupleIJNS_12basic_stringIcNS_11char_traitsIcEENS1_IcEEEEiEEEEEE10deallocateB8ue170006ERS9_PS8_m, symObjAddr: 0x1252C, symBinAddr: 0x100014118, symSize: 0x34 }
  - { offsetInCU: 0x30BBB, offset: 0x30BBB, size: 0x8, addend: 0x0, symName: __ZNSt3__16vectorINS_5tupleIJNS_12basic_stringIcNS_11char_traitsIcEENS_9allocatorIcEEEEiEEENS5_IS8_EEE22__base_destruct_at_endB8ue170006EPS8_, symObjAddr: 0x12560, symBinAddr: 0x10001414C, symSize: 0x8C }
  - { offsetInCU: 0x30BFF, offset: 0x30BFF, size: 0x8, addend: 0x0, symName: __ZNKSt3__16vectorINS_5tupleIJNS_12basic_stringIcNS_11char_traitsIcEENS_9allocatorIcEEEEiEEENS5_IS8_EEE4sizeB8ue170006Ev, symObjAddr: 0x125EC, symBinAddr: 0x1000141D8, symSize: 0x28 }
  - { offsetInCU: 0x30C25, offset: 0x30C25, size: 0x8, addend: 0x0, symName: __ZNSt3__19allocatorINS_5tupleIJNS_12basic_stringIcNS_11char_traitsIcEENS0_IcEEEEiEEEE10deallocateB8ue170006EPS7_m, symObjAddr: 0x12614, symBinAddr: 0x100014200, symSize: 0x40 }
  - { offsetInCU: 0x30C67, offset: 0x30C67, size: 0x8, addend: 0x0, symName: __ZNSt3__16vectorINS_5tupleIJNS_12basic_stringIcNS_11char_traitsIcEENS_9allocatorIcEEEEiEEENS5_IS8_EEEC2B8ue170006Ev, symObjAddr: 0x12654, symBinAddr: 0x100014240, symSize: 0x4C }
  - { offsetInCU: 0x30C91, offset: 0x30C91, size: 0x8, addend: 0x0, symName: __ZNSt3__16vectorINS0_I4NodeNS_9allocatorIS1_EEEENS2_IS4_EEE11__make_iterB8ue170006EPS4_, symObjAddr: 0x126A0, symBinAddr: 0x10001428C, symSize: 0x30 }
  - { offsetInCU: 0x30CC6, offset: 0x30CC6, size: 0x8, addend: 0x0, symName: __ZNSt3__111__wrap_iterIPNS_6vectorI4NodeNS_9allocatorIS2_EEEEEC1B8ue170006ES6_, symObjAddr: 0x126D0, symBinAddr: 0x1000142BC, symSize: 0x34 }
  - { offsetInCU: 0x30CFE, offset: 0x30CFE, size: 0x8, addend: 0x0, symName: __ZNSt3__111__wrap_iterIPNS_6vectorI4NodeNS_9allocatorIS2_EEEEEC2B8ue170006ES6_, symObjAddr: 0x12704, symBinAddr: 0x1000142F0, symSize: 0x20 }
  - { offsetInCU: 0x30D36, offset: 0x30D36, size: 0x8, addend: 0x0, symName: __ZNKSt3__111__wrap_iterIPNS_6vectorI4NodeNS_9allocatorIS2_EEEEE4baseB8ue170006Ev, symObjAddr: 0x1276C, symBinAddr: 0x100014358, symSize: 0x18 }
  - { offsetInCU: 0x30D5C, offset: 0x30D5C, size: 0x8, addend: 0x0, symName: __ZNSt3__16vectorINS_5tupleIJNS_12basic_stringIcNS_11char_traitsIcEENS_9allocatorIcEEEEiEEENS5_IS8_EEE22__construct_one_at_endB8ue170006IJS8_EEEvDpOT_, symObjAddr: 0x12784, symBinAddr: 0x100014370, symSize: 0x90 }
  - { offsetInCU: 0x30DAB, offset: 0x30DAB, size: 0x8, addend: 0x0, symName: __ZNSt3__16vectorINS_5tupleIJNS_12basic_stringIcNS_11char_traitsIcEENS_9allocatorIcEEEEiEEENS5_IS8_EEE21__push_back_slow_pathIS8_EEvOT_, symObjAddr: 0x12814, symBinAddr: 0x100014400, symSize: 0xD8 }
  - { offsetInCU: 0x30E09, offset: 0x30E09, size: 0x8, addend: 0x0, symName: __ZNSt3__116allocator_traitsINS_9allocatorINS_5tupleIJNS_12basic_stringIcNS_11char_traitsIcEENS1_IcEEEEiEEEEEE9constructB8ue170006IS8_JS8_EvvEEvRS9_PT_DpOT0_, symObjAddr: 0x128EC, symBinAddr: 0x1000144D8, symSize: 0x30 }
  - { offsetInCU: 0x30E5E, offset: 0x30E5E, size: 0x8, addend: 0x0, symName: __ZNSt3__15tupleIJNS_12basic_stringIcNS_11char_traitsIcEENS_9allocatorIcEEEEiEEC1EOS7_, symObjAddr: 0x12958, symBinAddr: 0x100014544, symSize: 0x34 }
  - { offsetInCU: 0x30E94, offset: 0x30E94, size: 0x8, addend: 0x0, symName: __ZNSt3__15tupleIJNS_12basic_stringIcNS_11char_traitsIcEENS_9allocatorIcEEEEiEEC2EOS7_, symObjAddr: 0x1298C, symBinAddr: 0x100014578, symSize: 0x34 }
  - { offsetInCU: 0x30ECA, offset: 0x30ECA, size: 0x8, addend: 0x0, symName: __ZNSt3__112__tuple_implINS_15__tuple_indicesIJLm0ELm1EEEEJNS_12basic_stringIcNS_11char_traitsIcEENS_9allocatorIcEEEEiEEC1EOS9_, symObjAddr: 0x129C0, symBinAddr: 0x1000145AC, symSize: 0x34 }
  - { offsetInCU: 0x30F00, offset: 0x30F00, size: 0x8, addend: 0x0, symName: __ZNSt3__112__tuple_implINS_15__tuple_indicesIJLm0ELm1EEEEJNS_12basic_stringIcNS_11char_traitsIcEENS_9allocatorIcEEEEiEEC2EOS9_, symObjAddr: 0x129F4, symBinAddr: 0x1000145E0, symSize: 0x40 }
  - { offsetInCU: 0x30F36, offset: 0x30F36, size: 0x8, addend: 0x0, symName: __ZNSt3__112__tuple_leafILm0ENS_12basic_stringIcNS_11char_traitsIcEENS_9allocatorIcEEEELb0EEC2B8ue170006EOS7_, symObjAddr: 0x12A34, symBinAddr: 0x100014620, symSize: 0x34 }
  - { offsetInCU: 0x30F6F, offset: 0x30F6F, size: 0x8, addend: 0x0, symName: __ZNKSt3__16vectorINS_5tupleIJNS_12basic_stringIcNS_11char_traitsIcEENS_9allocatorIcEEEEiEEENS5_IS8_EEE11__recommendB8ue170006Em, symObjAddr: 0x12A68, symBinAddr: 0x100014654, symSize: 0xB4 }
  - { offsetInCU: 0x30FC4, offset: 0x30FC4, size: 0x8, addend: 0x0, symName: __ZNSt3__114__split_bufferINS_5tupleIJNS_12basic_stringIcNS_11char_traitsIcEENS_9allocatorIcEEEEiEEERNS5_IS8_EEEC1EmmSA_, symObjAddr: 0x12B1C, symBinAddr: 0x100014708, symSize: 0x44 }
  - { offsetInCU: 0x3101A, offset: 0x3101A, size: 0x8, addend: 0x0, symName: __ZNSt3__114__split_bufferINS_5tupleIJNS_12basic_stringIcNS_11char_traitsIcEENS_9allocatorIcEEEEiEEERNS5_IS8_EEED1Ev, symObjAddr: 0x12C70, symBinAddr: 0x10001485C, symSize: 0x2C }
  - { offsetInCU: 0x31046, offset: 0x31046, size: 0x8, addend: 0x0, symName: __ZNSt3__114__split_bufferINS_5tupleIJNS_12basic_stringIcNS_11char_traitsIcEENS_9allocatorIcEEEEiEEERNS5_IS8_EEEC2EmmSA_, symObjAddr: 0x12C9C, symBinAddr: 0x100014888, symSize: 0xD4 }
  - { offsetInCU: 0x310B9, offset: 0x310B9, size: 0x8, addend: 0x0, symName: __ZNSt3__117__compressed_pairIPNS_5tupleIJNS_12basic_stringIcNS_11char_traitsIcEENS_9allocatorIcEEEEiEEERNS5_IS8_EEEC1B8ue170006IDnSB_EEOT_OT0_, symObjAddr: 0x12D70, symBinAddr: 0x10001495C, symSize: 0x3C }
  - { offsetInCU: 0x31111, offset: 0x31111, size: 0x8, addend: 0x0, symName: __ZNSt3__114__split_bufferINS_5tupleIJNS_12basic_stringIcNS_11char_traitsIcEENS_9allocatorIcEEEEiEEERNS5_IS8_EEE7__allocB8ue170006Ev, symObjAddr: 0x12DAC, symBinAddr: 0x100014998, symSize: 0x28 }
  - { offsetInCU: 0x31137, offset: 0x31137, size: 0x8, addend: 0x0, symName: __ZNSt3__114__split_bufferINS_5tupleIJNS_12basic_stringIcNS_11char_traitsIcEENS_9allocatorIcEEEEiEEERNS5_IS8_EEE9__end_capB8ue170006Ev, symObjAddr: 0x12DD4, symBinAddr: 0x1000149C0, symSize: 0x28 }
  - { offsetInCU: 0x3115D, offset: 0x3115D, size: 0x8, addend: 0x0, symName: __ZNSt3__117__compressed_pairIPNS_5tupleIJNS_12basic_stringIcNS_11char_traitsIcEENS_9allocatorIcEEEEiEEERNS5_IS8_EEEC2B8ue170006IDnSB_EEOT_OT0_, symObjAddr: 0x12DFC, symBinAddr: 0x1000149E8, symSize: 0x48 }
  - { offsetInCU: 0x311B5, offset: 0x311B5, size: 0x8, addend: 0x0, symName: __ZNSt3__122__compressed_pair_elemIRNS_9allocatorINS_5tupleIJNS_12basic_stringIcNS_11char_traitsIcEENS1_IcEEEEiEEEEELi1ELb0EEC2B8ue170006ISA_vEEOT_, symObjAddr: 0x12E44, symBinAddr: 0x100014A30, symSize: 0x20 }
  - { offsetInCU: 0x311F7, offset: 0x311F7, size: 0x8, addend: 0x0, symName: __ZNSt3__117__compressed_pairIPNS_5tupleIJNS_12basic_stringIcNS_11char_traitsIcEENS_9allocatorIcEEEEiEEERNS5_IS8_EEE6secondB8ue170006Ev, symObjAddr: 0x12E64, symBinAddr: 0x100014A50, symSize: 0x28 }
  - { offsetInCU: 0x3121D, offset: 0x3121D, size: 0x8, addend: 0x0, symName: __ZNSt3__122__compressed_pair_elemIRNS_9allocatorINS_5tupleIJNS_12basic_stringIcNS_11char_traitsIcEENS1_IcEEEEiEEEEELi1ELb0EE5__getB8ue170006Ev, symObjAddr: 0x12E8C, symBinAddr: 0x100014A78, symSize: 0x18 }
  - { offsetInCU: 0x31243, offset: 0x31243, size: 0x8, addend: 0x0, symName: __ZNSt3__117__compressed_pairIPNS_5tupleIJNS_12basic_stringIcNS_11char_traitsIcEENS_9allocatorIcEEEEiEEERNS5_IS8_EEE5firstB8ue170006Ev, symObjAddr: 0x12EA4, symBinAddr: 0x100014A90, symSize: 0x24 }
  - { offsetInCU: 0x31269, offset: 0x31269, size: 0x8, addend: 0x0, symName: __ZNSt3__129_AllocatorDestroyRangeReverseINS_9allocatorINS_5tupleIJNS_12basic_stringIcNS_11char_traitsIcEENS1_IcEEEEiEEEEENS_16reverse_iteratorIPS8_EEEC1B8ue170006ERS9_RSC_SF_, symObjAddr: 0x13074, symBinAddr: 0x100014C60, symSize: 0x44 }
  - { offsetInCU: 0x312C0, offset: 0x312C0, size: 0x8, addend: 0x0, symName: __ZNKSt3__116reverse_iteratorIPNS_5tupleIJNS_12basic_stringIcNS_11char_traitsIcEENS_9allocatorIcEEEEiEEEEdeB8ue170006Ev, symObjAddr: 0x130B8, symBinAddr: 0x100014CA4, symSize: 0x28 }
  - { offsetInCU: 0x312F4, offset: 0x312F4, size: 0x8, addend: 0x0, symName: __ZNSt3__128__exception_guard_exceptionsINS_29_AllocatorDestroyRangeReverseINS_9allocatorINS_5tupleIJNS_12basic_stringIcNS_11char_traitsIcEENS2_IcEEEEiEEEEENS_16reverse_iteratorIPS9_EEEEE10__completeB8ue170006Ev, symObjAddr: 0x130E0, symBinAddr: 0x100014CCC, symSize: 0x1C }
  - { offsetInCU: 0x3131A, offset: 0x3131A, size: 0x8, addend: 0x0, symName: __ZNSt3__128__exception_guard_exceptionsINS_29_AllocatorDestroyRangeReverseINS_9allocatorINS_5tupleIJNS_12basic_stringIcNS_11char_traitsIcEENS2_IcEEEEiEEEEENS_16reverse_iteratorIPS9_EEEEED1B8ue170006Ev, symObjAddr: 0x130FC, symBinAddr: 0x100014CE8, symSize: 0x2C }
  - { offsetInCU: 0x31344, offset: 0x31344, size: 0x8, addend: 0x0, symName: __ZNSt3__128__exception_guard_exceptionsINS_29_AllocatorDestroyRangeReverseINS_9allocatorINS_5tupleIJNS_12basic_stringIcNS_11char_traitsIcEENS2_IcEEEEiEEEEENS_16reverse_iteratorIPS9_EEEEEC1B8ue170006ESE_, symObjAddr: 0x13128, symBinAddr: 0x100014D14, symSize: 0x34 }
  - { offsetInCU: 0x3137D, offset: 0x3137D, size: 0x8, addend: 0x0, symName: __ZNSt3__128__exception_guard_exceptionsINS_29_AllocatorDestroyRangeReverseINS_9allocatorINS_5tupleIJNS_12basic_stringIcNS_11char_traitsIcEENS2_IcEEEEiEEEEENS_16reverse_iteratorIPS9_EEEEEC2B8ue170006ESE_, symObjAddr: 0x1315C, symBinAddr: 0x100014D48, symSize: 0x30 }
  - { offsetInCU: 0x313B6, offset: 0x313B6, size: 0x8, addend: 0x0, symName: __ZNSt3__129_AllocatorDestroyRangeReverseINS_9allocatorINS_5tupleIJNS_12basic_stringIcNS_11char_traitsIcEENS1_IcEEEEiEEEEENS_16reverse_iteratorIPS8_EEEC2B8ue170006ERS9_RSC_SF_, symObjAddr: 0x1318C, symBinAddr: 0x100014D78, symSize: 0x38 }
  - { offsetInCU: 0x3140D, offset: 0x3140D, size: 0x8, addend: 0x0, symName: __ZNSt3__128__exception_guard_exceptionsINS_29_AllocatorDestroyRangeReverseINS_9allocatorINS_5tupleIJNS_12basic_stringIcNS_11char_traitsIcEENS2_IcEEEEiEEEEENS_16reverse_iteratorIPS9_EEEEED2B8ue170006Ev, symObjAddr: 0x131C4, symBinAddr: 0x100014DB0, symSize: 0x50 }
  - { offsetInCU: 0x31437, offset: 0x31437, size: 0x8, addend: 0x0, symName: __ZNKSt3__129_AllocatorDestroyRangeReverseINS_9allocatorINS_5tupleIJNS_12basic_stringIcNS_11char_traitsIcEENS1_IcEEEEiEEEEENS_16reverse_iteratorIPS8_EEEclB8ue170006Ev, symObjAddr: 0x13214, symBinAddr: 0x100014E00, symSize: 0xB4 }
  - { offsetInCU: 0x3145E, offset: 0x3145E, size: 0x8, addend: 0x0, symName: __ZNSt3__116reverse_iteratorINS0_IPNS_5tupleIJNS_12basic_stringIcNS_11char_traitsIcEENS_9allocatorIcEEEEiEEEEEEC1B8ue170006ESA_, symObjAddr: 0x13338, symBinAddr: 0x100014F24, symSize: 0x3C }
  - { offsetInCU: 0x31496, offset: 0x31496, size: 0x8, addend: 0x0, symName: __ZNSt3__116reverse_iteratorINS0_IPNS_5tupleIJNS_12basic_stringIcNS_11char_traitsIcEENS_9allocatorIcEEEEiEEEEEEppB8ue170006Ev, symObjAddr: 0x133F8, symBinAddr: 0x100014FE4, symSize: 0x30 }
  - { offsetInCU: 0x314BC, offset: 0x314BC, size: 0x8, addend: 0x0, symName: __ZNKSt3__116reverse_iteratorINS0_IPNS_5tupleIJNS_12basic_stringIcNS_11char_traitsIcEENS_9allocatorIcEEEEiEEEEEE4baseB8ue170006Ev, symObjAddr: 0x13428, symBinAddr: 0x100015014, symSize: 0x24 }
  - { offsetInCU: 0x314E8, offset: 0x314E8, size: 0x8, addend: 0x0, symName: __ZNSt3__119__to_address_helperINS_16reverse_iteratorINS1_IPNS_5tupleIJNS_12basic_stringIcNS_11char_traitsIcEENS_9allocatorIcEEEEiEEEEEEEvE6__callB8ue170006ERKSC_, symObjAddr: 0x1344C, symBinAddr: 0x100015038, symSize: 0x38 }
  - { offsetInCU: 0x3150B, offset: 0x3150B, size: 0x8, addend: 0x0, symName: __ZNKSt3__116reverse_iteratorINS0_IPNS_5tupleIJNS_12basic_stringIcNS_11char_traitsIcEENS_9allocatorIcEEEEiEEEEEEptB8ue170006Ev, symObjAddr: 0x13484, symBinAddr: 0x100015070, symSize: 0x4C }
  - { offsetInCU: 0x31531, offset: 0x31531, size: 0x8, addend: 0x0, symName: __ZNSt3__116reverse_iteratorIPNS_5tupleIJNS_12basic_stringIcNS_11char_traitsIcEENS_9allocatorIcEEEEiEEEEpLB8ue170006El, symObjAddr: 0x13580, symBinAddr: 0x10001516C, symSize: 0x30 }
  - { offsetInCU: 0x31565, offset: 0x31565, size: 0x8, addend: 0x0, symName: __ZNSt3__116reverse_iteratorIPNS_5tupleIJNS_12basic_stringIcNS_11char_traitsIcEENS_9allocatorIcEEEEiEEEEmmB8ue170006Ev, symObjAddr: 0x135B0, symBinAddr: 0x10001519C, symSize: 0x20 }
  - { offsetInCU: 0x3158B, offset: 0x3158B, size: 0x8, addend: 0x0, symName: __ZNSt3__116reverse_iteratorINS0_IPNS_5tupleIJNS_12basic_stringIcNS_11char_traitsIcEENS_9allocatorIcEEEEiEEEEEEC2B8ue170006ESA_, symObjAddr: 0x135D0, symBinAddr: 0x1000151BC, symSize: 0x2C }
  - { offsetInCU: 0x315C3, offset: 0x315C3, size: 0x8, addend: 0x0, symName: __ZNSt3__114__split_bufferINS_5tupleIJNS_12basic_stringIcNS_11char_traitsIcEENS_9allocatorIcEEEEiEEERNS5_IS8_EEED2Ev, symObjAddr: 0x135FC, symBinAddr: 0x1000151E8, symSize: 0x8C }
  - { offsetInCU: 0x315EF, offset: 0x315EF, size: 0x8, addend: 0x0, symName: __ZNSt3__114__split_bufferINS_5tupleIJNS_12basic_stringIcNS_11char_traitsIcEENS_9allocatorIcEEEEiEEERNS5_IS8_EEE5clearB8ue170006Ev, symObjAddr: 0x13688, symBinAddr: 0x100015274, symSize: 0x28 }
  - { offsetInCU: 0x31615, offset: 0x31615, size: 0x8, addend: 0x0, symName: __ZNKSt3__114__split_bufferINS_5tupleIJNS_12basic_stringIcNS_11char_traitsIcEENS_9allocatorIcEEEEiEEERNS5_IS8_EEE8capacityB8ue170006Ev, symObjAddr: 0x136B0, symBinAddr: 0x10001529C, symSize: 0x40 }
  - { offsetInCU: 0x3163B, offset: 0x3163B, size: 0x8, addend: 0x0, symName: __ZNSt3__114__split_bufferINS_5tupleIJNS_12basic_stringIcNS_11char_traitsIcEENS_9allocatorIcEEEEiEEERNS5_IS8_EEE17__destruct_at_endB8ue170006EPS8_, symObjAddr: 0x136F0, symBinAddr: 0x1000152DC, symSize: 0x2C }
  - { offsetInCU: 0x3166F, offset: 0x3166F, size: 0x8, addend: 0x0, symName: __ZNSt3__114__split_bufferINS_5tupleIJNS_12basic_stringIcNS_11char_traitsIcEENS_9allocatorIcEEEEiEEERNS5_IS8_EEE17__destruct_at_endB8ue170006EPS8_NS_17integral_constantIbLb0EEE, symObjAddr: 0x1371C, symBinAddr: 0x100015308, symSize: 0x80 }
  - { offsetInCU: 0x316AF, offset: 0x316AF, size: 0x8, addend: 0x0, symName: __ZNKSt3__114__split_bufferINS_5tupleIJNS_12basic_stringIcNS_11char_traitsIcEENS_9allocatorIcEEEEiEEERNS5_IS8_EEE9__end_capB8ue170006Ev, symObjAddr: 0x1379C, symBinAddr: 0x100015388, symSize: 0x28 }
  - { offsetInCU: 0x316D5, offset: 0x316D5, size: 0x8, addend: 0x0, symName: __ZNKSt3__117__compressed_pairIPNS_5tupleIJNS_12basic_stringIcNS_11char_traitsIcEENS_9allocatorIcEEEEiEEERNS5_IS8_EEE5firstB8ue170006Ev, symObjAddr: 0x137C4, symBinAddr: 0x1000153B0, symSize: 0x24 }
  - { offsetInCU: 0x316FB, offset: 0x316FB, size: 0x8, addend: 0x0, symName: __ZNSt3__15tupleIJNS_12basic_stringIcNS_11char_traitsIcEENS_9allocatorIcEEEEiEEC2B8ue170006IJRS6_RiELi0EEEDpOT_, symObjAddr: 0x137E8, symBinAddr: 0x1000153D4, symSize: 0x3C }
  - { offsetInCU: 0x31759, offset: 0x31759, size: 0x8, addend: 0x0, symName: __ZNSt3__112__tuple_implINS_15__tuple_indicesIJLm0ELm1EEEEJNS_12basic_stringIcNS_11char_traitsIcEENS_9allocatorIcEEEEiEEC1B8ue170006IJLm0ELm1EEJS8_iEJEJEJRS8_RiEEENS1_IJXspT_EEEENS_13__tuple_typesIJDpT0_EEENS1_IJXspT1_EEEENSE_IJDpT2_EEEDpOT3_, symObjAddr: 0x13824, symBinAddr: 0x100015410, symSize: 0x3C }
  - { offsetInCU: 0x3180D, offset: 0x3180D, size: 0x8, addend: 0x0, symName: __ZNSt3__112__tuple_implINS_15__tuple_indicesIJLm0ELm1EEEEJNS_12basic_stringIcNS_11char_traitsIcEENS_9allocatorIcEEEEiEEC2B8ue170006IJLm0ELm1EEJS8_iEJEJEJRS8_RiEEENS1_IJXspT_EEEENS_13__tuple_typesIJDpT0_EEENS1_IJXspT1_EEEENSE_IJDpT2_EEEDpOT3_, symObjAddr: 0x13860, symBinAddr: 0x10001544C, symSize: 0x48 }
  - { offsetInCU: 0x318C1, offset: 0x318C1, size: 0x8, addend: 0x0, symName: __ZNSt3__112__tuple_leafILm0ENS_12basic_stringIcNS_11char_traitsIcEENS_9allocatorIcEEEELb0EEC2B8ue170006IRS6_vEEOT_, symObjAddr: 0x138A8, symBinAddr: 0x100015494, symSize: 0x34 }
  - { offsetInCU: 0x31904, offset: 0x31904, size: 0x8, addend: 0x0, symName: __ZNSt3__112__tuple_leafILm1EiLb0EEC2B8ue170006IRivEEOT_, symObjAddr: 0x138DC, symBinAddr: 0x1000154C8, symSize: 0x24 }
  - { offsetInCU: 0x31947, offset: 0x31947, size: 0x8, addend: 0x0, symName: __ZNSt3__16vectorINS_5tupleIJNS_12basic_stringIcNS_11char_traitsIcEENS_9allocatorIcEEEEiEEENS5_IS8_EEE11__make_iterB8ue170006EPS8_, symObjAddr: 0x13900, symBinAddr: 0x1000154EC, symSize: 0x30 }
  - { offsetInCU: 0x3197C, offset: 0x3197C, size: 0x8, addend: 0x0, symName: __ZNSt3__111__wrap_iterIPNS_5tupleIJNS_12basic_stringIcNS_11char_traitsIcEENS_9allocatorIcEEEEiEEEEC1B8ue170006ES9_, symObjAddr: 0x13930, symBinAddr: 0x10001551C, symSize: 0x34 }
  - { offsetInCU: 0x319B4, offset: 0x319B4, size: 0x8, addend: 0x0, symName: __ZNSt3__111__wrap_iterIPNS_5tupleIJNS_12basic_stringIcNS_11char_traitsIcEENS_9allocatorIcEEEEiEEEEC2B8ue170006ES9_, symObjAddr: 0x13964, symBinAddr: 0x100015550, symSize: 0x20 }
  - { offsetInCU: 0x319EC, offset: 0x319EC, size: 0x8, addend: 0x0, symName: __ZNKSt3__111__wrap_iterIPNS_5tupleIJNS_12basic_stringIcNS_11char_traitsIcEENS_9allocatorIcEEEEiEEEE4baseB8ue170006Ev, symObjAddr: 0x139CC, symBinAddr: 0x1000155B8, symSize: 0x18 }
  - { offsetInCU: 0x31A12, offset: 0x31A12, size: 0x8, addend: 0x0, symName: __ZNSt3__112__tuple_leafILm1EiLb0EE3getB8ue170006Ev, symObjAddr: 0x139E4, symBinAddr: 0x1000155D0, symSize: 0x14 }
  - { offsetInCU: 0x31A38, offset: 0x31A38, size: 0x8, addend: 0x0, symName: __ZNSt3__112__tuple_leafILm0ENS_12basic_stringIcNS_11char_traitsIcEENS_9allocatorIcEEEELb0EE3getB8ue170006Ev, symObjAddr: 0x139F8, symBinAddr: 0x1000155E4, symSize: 0x14 }
  - { offsetInCU: 0x31A5E, offset: 0x31A5E, size: 0x8, addend: 0x0, symName: __ZNSt3__16vectorINS_5tupleIJNS_12basic_stringIcNS_11char_traitsIcEENS_9allocatorIcEEEEiEEENS5_IS8_EEED2B8ue170006Ev, symObjAddr: 0x13A0C, symBinAddr: 0x1000155F8, symSize: 0x40 }
  - { offsetInCU: 0x31A88, offset: 0x31A88, size: 0x8, addend: 0x0, symName: __ZNKSt3__112basic_stringIcNS_11char_traitsIcEENS_9allocatorIcEEEixB8ue170006Em, symObjAddr: 0x13A4C, symBinAddr: 0x100015638, symSize: 0x30 }
  - { offsetInCU: 0x31ABD, offset: 0x31ABD, size: 0x8, addend: 0x0, symName: __ZNSt3__16vectorI4LineNS_9allocatorIS1_EEE11__make_iterB8ue170006EPS1_, symObjAddr: 0x13A7C, symBinAddr: 0x100015668, symSize: 0x30 }
  - { offsetInCU: 0x31AF2, offset: 0x31AF2, size: 0x8, addend: 0x0, symName: __ZNSt3__111__wrap_iterIP4LineEC1B8ue170006ES2_, symObjAddr: 0x13AAC, symBinAddr: 0x100015698, symSize: 0x34 }
  - { offsetInCU: 0x31B2A, offset: 0x31B2A, size: 0x8, addend: 0x0, symName: __ZNSt3__111__wrap_iterIP4LineEC2B8ue170006ES2_, symObjAddr: 0x13AE0, symBinAddr: 0x1000156CC, symSize: 0x20 }
  - { offsetInCU: 0x31B62, offset: 0x31B62, size: 0x8, addend: 0x0, symName: __ZNKSt3__111__wrap_iterIP4LineE4baseB8ue170006Ev, symObjAddr: 0x13B48, symBinAddr: 0x100015734, symSize: 0x18 }
  - { offsetInCU: 0x31B88, offset: 0x31B88, size: 0x8, addend: 0x0, symName: __ZNSt3__14pairINS_6vectorINS_12basic_stringIcNS_11char_traitsIcEENS_9allocatorIcEEEENS5_IS7_EEEES7_ED2Ev, symObjAddr: 0x13B60, symBinAddr: 0x10001574C, symSize: 0x38 }
  - { offsetInCU: 0x31BB4, offset: 0x31BB4, size: 0x8, addend: 0x0, symName: __ZN10TranslatorD2Ev, symObjAddr: 0x13B98, symBinAddr: 0x100015784, symSize: 0x50 }
  - { offsetInCU: 0x31BDE, offset: 0x31BDE, size: 0x8, addend: 0x0, symName: __ZN7GrammarD1Ev, symObjAddr: 0x13BE8, symBinAddr: 0x1000157D4, symSize: 0x2C }
  - { offsetInCU: 0x31C0A, offset: 0x31C0A, size: 0x8, addend: 0x0, symName: __ZN7GrammarD2Ev, symObjAddr: 0x13C14, symBinAddr: 0x100015800, symSize: 0xAC }
  - { offsetInCU: 0x31C36, offset: 0x31C36, size: 0x8, addend: 0x0, symName: __ZNSt3__15tupleIJbNS_12basic_stringIcNS_11char_traitsIcEENS_9allocatorIcEEEEEED2Ev, symObjAddr: 0x13CC0, symBinAddr: 0x1000158AC, symSize: 0x2C }
  - { offsetInCU: 0x31C63, offset: 0x31C63, size: 0x8, addend: 0x0, symName: __ZNSt3__112__tuple_implINS_15__tuple_indicesIJLm0ELm1EEEEJbNS_12basic_stringIcNS_11char_traitsIcEENS_9allocatorIcEEEEEED1Ev, symObjAddr: 0x13CEC, symBinAddr: 0x1000158D8, symSize: 0x2C }
  - { offsetInCU: 0x31C90, offset: 0x31C90, size: 0x8, addend: 0x0, symName: __ZNSt3__112__tuple_implINS_15__tuple_indicesIJLm0ELm1EEEEJbNS_12basic_stringIcNS_11char_traitsIcEENS_9allocatorIcEEEEEED2Ev, symObjAddr: 0x13D18, symBinAddr: 0x100015904, symSize: 0x30 }
  - { offsetInCU: 0x31CBD, offset: 0x31CBD, size: 0x8, addend: 0x0, symName: __ZNSt3__112__tuple_leafILm1ENS_12basic_stringIcNS_11char_traitsIcEENS_9allocatorIcEEEELb0EED2Ev, symObjAddr: 0x13D48, symBinAddr: 0x100015934, symSize: 0x2C }
  - { offsetInCU: 0x31CEA, offset: 0x31CEA, size: 0x8, addend: 0x0, symName: __ZN6CenoteD2Ev, symObjAddr: 0x13D74, symBinAddr: 0x100015960, symSize: 0x38 }
  - { offsetInCU: 0x31D16, offset: 0x31D16, size: 0x8, addend: 0x0, symName: __ZN7HashMapD1Ev, symObjAddr: 0x13DAC, symBinAddr: 0x100015998, symSize: 0x2C }
  - { offsetInCU: 0x31D42, offset: 0x31D42, size: 0x8, addend: 0x0, symName: __ZN7HashMapD2Ev, symObjAddr: 0x13DD8, symBinAddr: 0x1000159C4, symSize: 0x2C }
  - { offsetInCU: 0x31D6E, offset: 0x31D6E, size: 0x8, addend: 0x0, symName: __ZNSt3__111char_traitsIcE2eqEcc, symObjAddr: 0x13E04, symBinAddr: 0x1000159F0, symSize: 0x28 }
  - { offsetInCU: 0x31DC2, offset: 0x31DC2, size: 0x8, addend: 0x0, symName: __ZNKSt3__113basic_ostreamIcNS_11char_traitsIcEEE6sentrycvbB8ue170006Ev, symObjAddr: 0x14018, symBinAddr: 0x100015C04, symSize: 0x1C }
  - { offsetInCU: 0x31DE8, offset: 0x31DE8, size: 0x8, addend: 0x0, symName: __ZNSt3__119ostreambuf_iteratorIcNS_11char_traitsIcEEEC1B8ue170006ERNS_13basic_ostreamIcS2_EE, symObjAddr: 0x14274, symBinAddr: 0x100015E60, symSize: 0x34 }
  - { offsetInCU: 0x31E20, offset: 0x31E20, size: 0x8, addend: 0x0, symName: __ZNKSt3__18ios_base5flagsB8ue170006Ev, symObjAddr: 0x142A8, symBinAddr: 0x100015E94, symSize: 0x18 }
  - { offsetInCU: 0x31E48, offset: 0x31E48, size: 0x8, addend: 0x0, symName: __ZNKSt3__19basic_iosIcNS_11char_traitsIcEEE4fillB8ue170006Ev, symObjAddr: 0x142C0, symBinAddr: 0x100015EAC, symSize: 0x64 }
  - { offsetInCU: 0x31E70, offset: 0x31E70, size: 0x8, addend: 0x0, symName: __ZNKSt3__119ostreambuf_iteratorIcNS_11char_traitsIcEEE6failedB8ue170006Ev, symObjAddr: 0x14324, symBinAddr: 0x100015F10, symSize: 0x24 }
  - { offsetInCU: 0x31E96, offset: 0x31E96, size: 0x8, addend: 0x0, symName: __ZNSt3__115basic_streambufIcNS_11char_traitsIcEEE5sputnB8ue170006EPKcl, symObjAddr: 0x14348, symBinAddr: 0x100015F34, symSize: 0x3C }
  - { offsetInCU: 0x31ED8, offset: 0x31ED8, size: 0x8, addend: 0x0, symName: __ZNSt3__112basic_stringIcNS_11char_traitsIcEENS_9allocatorIcEEEC1B8ue170006Emc, symObjAddr: 0x14384, symBinAddr: 0x100015F70, symSize: 0x3C }
  - { offsetInCU: 0x31F20, offset: 0x31F20, size: 0x8, addend: 0x0, symName: __ZNSt3__112basic_stringIcNS_11char_traitsIcEENS_9allocatorIcEEE4dataB8ue170006Ev, symObjAddr: 0x143C0, symBinAddr: 0x100015FAC, symSize: 0x28 }
  - { offsetInCU: 0x31F46, offset: 0x31F46, size: 0x8, addend: 0x0, symName: __ZNSt3__112basic_stringIcNS_11char_traitsIcEENS_9allocatorIcEEEC2B8ue170006Emc, symObjAddr: 0x143E8, symBinAddr: 0x100015FD4, symSize: 0x4C }
  - { offsetInCU: 0x31F8E, offset: 0x31F8E, size: 0x8, addend: 0x0, symName: __ZNSt3__119ostreambuf_iteratorIcNS_11char_traitsIcEEEC2B8ue170006ERNS_13basic_ostreamIcS2_EE, symObjAddr: 0x14434, symBinAddr: 0x100016020, symSize: 0x54 }
...
